     8000   00
     8001   00
     8002   00
     8003   4C 8F 97   JMP &978F
     8006   82
     8007   17
     8008   57
     8009   41 63 6F ...
     8013   00
     8014   31 35 37 
     8017   00
     8018   28 43 29 ...
     801F   00
.L8020
     8020   A0 04      LDY #&04
     8022   24 CD      BIT &CD
     8024   10 13      BPL &8039
.L8026
     8026   B1 B0      LDA (&B0),Y
     8028   99 26 C2   STA &C226,Y
     802B   88         DEY
     802C   D0 F8      BNE &8026
     802E   A9 40      LDA #&40
     8030   04 CD      TSB &CD
.L8032
     8032   A9 C4      LDA #&C4
     8034   20 06 04   JSR &0406
     8037   90 F9      BCC &8032
.L8039
     8039   60         RTS
.TUBE_RELEASE
.L803A
     803A   24 CD      BIT &CD
     803C   50 09      BVC &8047
     803E   A9 84      LDA #&84
     8040   20 06 04   JSR &0406
     8043   A9 40      LDA #&40
     8045   14 CD      TRB &CD
.L8047
     8047   AD D7 C2   LDA &C2D7
     804A   F0 03      BEQ &804F
     804C   8D 34 FE   STA &FE34
.L804F
     804F   9C D7 C2   STZ &C2D7
     8052   60         RTS
.L8053
     8053   5A         PHY
     8054   AC 34 FE   LDY &FE34
     8057   8C D7 C2   STY &C2D7
     805A   E8         INX
     805B   D0 10      BNE &806D
     805D   C9 FE      CMP #&FE
     805F   D0 0C      BNE &806D
     8061   98         TYA
     8062   6A         ROR A
     8063   A9 04      LDA #&04
     8065   1C 34 FE   TRB &FE34
     8068   90 03      BCC &806D
     806A   0C 34 FE   TSB &FE34
.L806D
     806D   7A         PLY
     806E   60         RTS
.ReadBreak
     806F   20 49 97   JSR &9749
     8072   29 01      AND #&01
     8074   60         RTS
.MountCheck
     8075   20 BD 9E   JSR &9EBD
     8078   4C 06 98   JMP &9806
.L8098
     807B   60         RTS
.L8099
     807C   AD 00 C2   LDA &C200
     807F   85 CE      STA &CE
     8081   60         RTS
.L809F
     8082   4C 80 81   JMP &8180
.L80A2
     8085   20 DB 81   JSR &81DB
     8088   86 B0      STX &B0
     808A   84 B1      STY &B1
     808C   20 EC A3   JSR &A3EC
     808F   A0 05      LDY #&05
     8091   B1 B0      LDA (&B0),Y
     8093   C9 2F      CMP #&2F
     8095   F0 29      BEQ &80C0
     8097   C9 1B      CMP #&1B
     8099   F0 25      BEQ &80C0
     809B   20 7C 80   JSR &807C
     809E   10 18      BPL &80B8
.L80BD
     80A0   20 C0 80   JSR &80C0
     80A3   F0 D6      BEQ &807B
     80A5   C9 04      CMP #&04
     80A7   D0 0F      BNE &80B8
     80A9   A0 19      LDY #&19
.L80C8
     80AB   24 FF      BIT &FF
     80AD   30 D3      BMI &8082
     80AF   3A         DEC A
     80B0   D0 F9      BNE &80AB
     80B2   CA         DEX
     80B3   D0 F6      BNE &80AB
     80B5   88         DEY
     80B6   D0 F3      BNE &80AB
.L80D7
     80B8   C9 40      CMP #&40
     80BA   F0 04      BEQ &80C0
     80BC   C6 CE      DEC &CE
     80BE   10 E0      BPL &80A0
.L80DF
     80C0   A0 04      LDY #&04
     80C2   B1 B0      LDA (&B0),Y
     80C4   AA         TAX
     80C5   88         DEY
     80C6   B1 B0      LDA (&B0),Y
     80C8   20 53 80   JSR &8053
.L8111
     80CB   20 7A B6   JSR &B67A
     80CE   A0 00      LDY #&00
.loop
     80D0   C8         INY
     80D1   B1 B0      LDA (&B0),Y
     80D3   99 B1 00   STA &00B1,Y
     80D6   C0 02      CPY #&02
     80D8   D0 F6      BNE &80D0
     80DA   B1 B0      LDA (&B0),Y
     80DC   C9 FE      CMP #&FE
     80DE   90 06      BCC &80E6
     80E0   C8         INY
     80E1   B1 B0      LDA (&B0),Y
     80E3   1A         INC A
     80E4   F0 03      BEQ &80E9
.L8134
     80E6   20 20 80   JSR &8020
.L8137
     80E9   A0 05      LDY #&05
     80EB   B1 B0      LDA (&B0),Y
     80ED   C9 09      CMP #&09
     80EF   29 FD      AND #&FD
     80F1   49 08      EOR #&08
     80F3   F0 04      BEQ &80F9
     80F5   A9 27      LDA #&27
     80F7   80 59      BRA &8152
.CommandOk
     80F9   24 CD      BIT &CD
     80FB   50 10      BVC &810D
     80FD   08         PHP
     80FE   DA         PHX
     80FF   A2 27      LDX #&27
     8101   A0 C2      LDY #&C2
     8103   A9 00      LDA #&00
     8105   2A         ROL A
     8106   49 01      EOR #&01
     8108   20 5F 81   JSR &815F
     810B   FA         PLX
     810C   28         PLP
.CommandStart
     810D   08         PHP
     810E   20 1D B8   JSR &B81D
     8111   28         PLP
     8112   08         PHP
     8113   20 0D B7   JSR &B70D
     8116   20 4D B8   JSR &B84D
     8119   A0 09      LDY #&09
     811B   B1 B0      LDA (&B0),Y
     811D   8D EA C2   STA &C2EA
.SectorLoop
     8120   28         PLP
     8121   08         PHP
     8122   90 0B      BCC &812F
.SectorWrite
     8124   20 D8 B6   JSR &B6D8
     8127   20 0E BB   JSR &BB0E
     812A   20 EF BA   JSR &BAEF
     812D   80 09      BRA &8138
.SectorRead
     812F   20 D0 B6   JSR &B6D0
     8132   20 72 BA   JSR &BA72
     8135   20 2E BA   JSR &BA2E
.SectorNext
     8138   20 DD B8   JSR &B8DD
     813B   E6 B3      INC &B3
     813D   EE 28 C2   INC &C228
     8140   D0 08      BNE &814A
     8142   EE 29 C2   INC &C229
     8145   D0 03      BNE &814A
     8147   EE 2A C2   INC &C22A
.TubeAddr
     814A   CE EA C2   DEC &C2EA
     814D   D0 D1      BNE &8120
     814F   28         PLP
.CommandDone
     8150   A9 00      LDA #&00
.CommandExit
     8152   48         PHA
     8153   20 3A 80   JSR &803A
     8156   68         PLA
     8157   A6 B0      LDX &B0
     8159   A4 B1      LDY &B1
     815B   29 7F      AND #&7F
     815D   60         RTS
.L8212
     815E   78         SEI
.L8213
     815F   20 06 04   JSR &0406
     8162   A0 00      LDY #&00
     8164   20 67 81   JSR &8167
.L821B
     8167   20 6A 81   JSR &816A
.L821E
     816A   60         RTS
.L82AA
     816B   A2 15      LDX #&15
     816D   A0 C2      LDY #&C2
.L82AE
     816F   20 85 80   JSR &8085
     8172   F0 6D      BEQ &81E1
.L82BD
     8174   C9 25      CMP #&25
     8176   F0 1B      BEQ &8193
     8178   C9 65      CMP #&65
     817A   F0 17      BEQ &8193
     817C   C9 6F      CMP #&6F
     817E   D0 19      BNE &8199
.L82C9
     8180   20 28 83   JSR &8328
.L82CC
     8183   A9 7E      LDA #&7E
     8185   20 F4 FF   JSR &FFF4
     8188   20 FB 81   JSR &81FB
     818B   11
     818C   45 73 63 ...
     8192   00
.L82B4
     8193   20 C1 9C   JSR &9CC1
     8196   4C DB 89   JMP &89DB
.L82DC
     8199   C9 04      CMP #&04
     819B   D0 14      BNE &81B1
     819D   20 FB 81   JSR &81FB
     81A0   CD
     81A1   44 72 69 ...
     81B0   00
.L82F4
     81B1   C9 40      CMP #&40
     81B3   F0 13      BEQ &81C8
     81B5   20 0D 88   JSR &880D
     81B8   AA         TAX
     81B9   20 04 82   JSR &8204
     81BC   C7
     81BD   44 69 73 ...
     81C7   00
.L830B
     81C8   20 E2 81   JSR &81E2
     81CB   C9
     81CC   44 69 73 ...
     81DA   00
.L8328
     81DB   A5 CD      LDA &CD
     81DD   29 FE      AND #&FE
     81DF   85 CD      STA &CD
.RTS2
     81E1   60         RTS
.L834E
     81E2   AE 2F C2   LDX &C22F
     81E5   E8         INX
     81E6   D0 13      BNE &81FB
     81E8   AE 2E C2   LDX &C22E
     81EB   E8         INX
     81EC   D0 07      BNE &81F5
     81EE   A0 02      LDY #&02
.L835C
     81F0   20 B4 B5   JSR &B5B4
     81F3   10 FB      BPL &81F0
.L8365
     81F5   AD 17 C3   LDA &C317
     81F8   8D 2F C2   STA &C22F
.L836B
     81FB   20 0D 88   JSR &880D
     81FE   A9 10      LDA #&10
     8200   14 CD      TRB &CD
.L8372
     8202   A2 00      LDX #&00
.L8374
     8204   68         PLA
     8205   85 B2      STA &B2
     8207   68         PLA
     8208   85 B3      STA &B3
     820A   A9 10      LDA #&10
     820C   14 CD      TRB &CD
     820E   A0 00      LDY #&00
.L8380
     8210   C8         INY
     8211   B1 B2      LDA (&B2),Y
     8213   99 00 01   STA &0100,Y
     8216   D0 F8      BNE &8210
     8218   8A         TXA
     8219   F0 4E      BEQ &8269
     821B   A9 20      LDA #&20
     821D   99 00 01   STA &0100,Y
     8220   8A         TXA
     8221   C9 30      CMP #&30
     8223   B0 05      BCS &822A
.L8395
     8225   20 E0 82   JSR &82E0
     8228   80 07      BRA &8231
.L839B
     822A   C9 3A      CMP #&3A
     822C   B0 F7      BCS &8225
     822E   20 FB 82   JSR &82FB
.L83A2
     8231   A2 04      LDX #&04
.L83A4
     8233   C8         INY
     8234   BD CF 82   LDA &82CF,X
     8237   99 00 01   STA &0100,Y
     823A   CA         DEX
     823B   10 F6      BPL &8233
     823D   AD D2 C2   LDA &C2D2
     8240   0A         ASL A
     8241   2A         ROL A
     8242   2A         ROL A
     8243   2A         ROL A
     8244   20 F0 82   JSR &82F0
     8247   C8         INY
     8248   99 00 01   STA &0100,Y
     824B   A9 2F      LDA #&2F
     824D   C8         INY
     824E   99 00 01   STA &0100,Y
     8251   AD D2 C2   LDA &C2D2
     8254   29 1F      AND #&1F
     8256   A2 02      LDX #&02
     8258   D0 03      BNE &825D
.L83CB
     825A   BD D0 C2   LDA &C2D0,X
.L83CE
     825D   20 E0 82   JSR &82E0
     8260   CA         DEX
     8261   10 F7      BPL &825A
     8263   C8         INY
     8264   A9 00      LDA #&00
     8266   99 00 01   STA &0100,Y
.L83DA
     8269   AD D5 C2   LDA &C2D5
     826C   F0 30      BEQ &829E
     826E   A2 0B      LDX #&0B
     8270   88         DEY
.L83E2
     8271   BD D4 82   LDA &82D4,X
     8274   C8         INY
     8275   99 00 01   STA &0100,Y
     8278   CA         DEX
     8279   10 F6      BPL &8271
     827B   AD D5 C2   LDA &C2D5
     827E   20 FB 82   JSR &82FB
     8281   5A         PHY
     8282   A9 C6      LDA #&C6
     8284   8D D9 C2   STA &C2D9
     8287   20 52 83   JSR &8352
     828A   EC D5 C2   CPX &C2D5
     828D   08         PHP
     828E   A2 BD      LDX #&BD
     8290   28         PLP
     8291   F0 07      BEQ &829A
     8293   CC D5 C2   CPY &C2D5
     8296   D0 05      BNE &829D
     8298   A2 C0      LDX #&C0
.L840B
     829A   20 61 83   JSR &8361
.L840E
     829D   7A         PLY
.L840F
     829E   AD CE C2   LDA &C2CE
     82A1   D0 03      BNE &82A6
     82A3   20 C2 A4   JSR &A4C2
.L8417
     82A6   A9 00      LDA #&00
     82A8   8D 00 01   STA &0100
     82AB   99 01 01   STA &0101,Y
     82AE   20 3A 80   JSR &803A
     82B1   AD 01 01   LDA &0101
     82B4   C9 C7      CMP #&C7
     82B6   D0 14      BNE &82CC
     82B8   3A         DEC A
     82B9   20 52 83   JSR &8352
     82BC   5A         PHY
     82BD   8A         TXA
     82BE   A2 4B      LDX #&4B
     82C0   20 59 83   JSR &8359
     82C3   68         PLA
     82C4   A2 4E      LDX #&4E
     82C6   20 59 83   JSR &8359
     82C9   20 28 83   JSR &8328
.L843D
     82CC   4C 00 01   JMP &0100
.L8440
     82CF   3A 20 74 ...
.L8445
     82D4   20 6C 65 ...
.L8451
     82E0   48         PHA
     82E1   20 ED 88   JSR &88ED
     82E4   20 E8 82   JSR &82E8
     82E7   68         PLA
.L845A
     82E8   20 F0 82   JSR &82F0
     82EB   C8         INY
     82EC   99 00 01   STA &0100,Y
     82EF   60         RTS
.L8462
     82F0   29 0F      AND #&0F
     82F2   09 30      ORA #&30
     82F4   C9 3A      CMP #&3A
     82F6   90 02      BCC &82FA
     82F8   69 06      ADC #&06
.L846C
     82FA   60         RTS
.L846D
     82FB   2C 11 83   BIT &8311
     82FE   A2 64      LDX #&64
     8300   20 0B 83   JSR &830B
     8303   A2 0A      LDX #&0A
     8305   20 0B 83   JSR &830B
     8308   B8         CLV
     8309   A2 01      LDX #&01
.L847D
     830B   08         PHP
     830C   86 B3      STX &B3
     830E   A2 2F      LDX #&2F
     8310   38         SEC
.L8483
     8311   E8         INX
     8312   E5 B3      SBC &B3
     8314   B0 FB      BCS &8311
     8316   65 B3      ADC &B3
     8318   28         PLP
     8319   48         PHA
     831A   8A         TXA
     831B   50 05      BVC &8322
     831D   C9 30      CMP #&30
     831F   F0 05      BEQ &8326
     8321   B8         CLV
.L8494
     8322   C8         INY
     8323   99 00 01   STA &0100,Y
.L8498
     8326   68         PLA
     8327   60         RTS
.L849A
     8328   A2 0C      LDX #&0C
     832A   A9 FF      LDA #&FF
.L849E
     832C   9D 2B C2   STA &C22B,X
     832F   9D 13 C3   STA &C313,X
     8332   CA         DEX
     8333   D0 F7      BNE &832C
     8335   20 A8 9E   JSR &9EA8
     8338   20 A8 9E   JSR &9EA8
     833B   A0 00      LDY #&00
     833D   98         TYA
.L84B0
     833E   99 00 C1   STA &C100,Y
     8341   99 00 C0   STA &C000,Y
     8344   99 00 C4   STA &C400,Y
     8347   C8         INY
     8348   D0 F4      BNE &833E
.RTS3
.L84BC
     834A   60         RTS
.L84BD
     834B   45 2E 
     834D   0D
.L84C0
     834E   53 50 2E 
     8351   0D
.L84C4
     8352   A0 FF      LDY #&FF
.L84C6
     8354   A2 00      LDX #&00
     8356   4C F4 FF   JMP &FFF4
.L84CB
     8359   C9 30      CMP #&30
     835B   90 ED      BCC &834A
     835D   C9 3A      CMP #&3A
     835F   B0 E9      BCS &834A
.L84D3
     8361   A0 83      LDY #&83
     8363   4C F7 FF   JMP &FFF7
.L84D8
     8366   0D
     8367   53 45 59 
.L84DC
     836A   00
     836B   48 75 67 ...
.L84E1
     836F   20 C8 9C   JSR &9CC8
     8372   F0 D6      BEQ &834A
     8374   A2 00      LDX #&00
.L84EF
     8376   EC FE C1   CPX &C1FE
     8379   B0 32      BCS &83AD
     837B   E8         INX
     837C   E8         INX
     837D   E8         INX
     837E   86 B2      STX &B2
     8380   A0 02      LDY #&02
.L84FB
     8382   CA         DEX
     8383   BD 00 C0   LDA &C000,X
     8386   D9 34 C2   CMP &C234,Y
     8389   B0 04      BCS &838F
     838B   A6 B2      LDX &B2
     838D   80 E7      BRA &8376
.L8508
     838F   D0 03      BNE &8394
     8391   88         DEY
     8392   10 EE      BPL &8382
.L850D
     8394   A6 B2      LDX &B2
     8396   CA         DEX
     8397   CA         DEX
     8398   CA         DEX
     8399   86 B2      STX &B2
     839B   18         CLC
     839C   08         PHP
     839D   A0 00      LDY #&00
.L8518
     839F   28         PLP
     83A0   B9 34 C2   LDA &C234,Y
     83A3   79 37 C2   ADC &C237,Y
     83A6   08         PHP
     83A7   DD 00 C0   CMP &C000,X
     83AA   F0 04      BEQ &83B0
     83AC   28         PLP
.L8526
     83AD   4C 45 84   JMP &8445
.L8529
     83B0   20 82 B6   JSR &B682
     83B3   D0 EA      BNE &839F
     83B5   28         PLP
     83B6   A6 B2      LDX &B2
     83B8   F0 57      BEQ &8411
     83BA   18         CLC
     83BB   08         PHP
     83BC   A0 00      LDY #&00
.L8538
     83BE   28         PLP
     83BF   20 D2 9C   JSR &9CD2
     83C2   08         PHP
     83C3   D9 34 C2   CMP &C234,Y
     83C6   F0 05      BEQ &83CD
     83C8   A6 B2      LDX &B2
     83CA   68         PLA
     83CB   80 44      BRA &8411
.L854A
     83CD   20 82 B6   JSR &B682
     83D0   D0 EC      BNE &83BE
     83D2   28         PLP
     83D3   A6 B2      LDX &B2
     83D5   A0 00      LDY #&00
     83D7   18         CLC
     83D8   08         PHP
.L8557
     83D9   28         PLP
     83DA   20 D9 9C   JSR &9CD9
     83DD   08         PHP
     83DE   20 82 B6   JSR &B682
     83E1   D0 F6      BNE &83D9
     83E3   28         PLP
     83E4   A0 02      LDY #&02
     83E6   A6 B2      LDX &B2
     83E8   18         CLC
.L856E
     83E9   BD FD C0   LDA &C0FD,X
     83EC   7D 00 C1   ADC &C100,X
     83EF   9D FD C0   STA &C0FD,X
     83F2   E8         INX
     83F3   88         DEY
     83F4   10 F3      BPL &83E9
.L857B
     83F6   EC FE C1   CPX &C1FE
     83F9   B0 0F      BCS &840A
     83FB   BD 00 C1   LDA &C100,X
     83FE   9D FD C0   STA &C0FD,X
     8401   BD 00 C0   LDA &C000,X
     8404   9D FD BF   STA &BFFD,X
     8407   E8         INX
     8408   D0 EC      BNE &83F6
.L858F
     840A   CA         DEX
     840B   CA         DEX
     840C   CA         DEX
     840D   8E FE C1   STX &C1FE
     8410   60         RTS
.L8596
     8411   A0 00      LDY #&00
     8413   18         CLC
     8414   08         PHP
.L859A
     8415   B9 34 C2   LDA &C234,Y
     8418   9D 00 C0   STA &C000,X
     841B   28         PLP
     841C   BD 00 C1   LDA &C100,X
     841F   79 37 C2   ADC &C237,Y
     8422   9D 00 C1   STA &C100,X
     8425   08         PHP
     8426   20 82 B6   JSR &B682
     8429   D0 EA      BNE &8415
     842B   28         PLP
     842C   60         RTS
.L85CB
     842D   20 82 B6   JSR &B682
     8430   D0 1B      BNE &844D
     8432   28         PLP
     8433   A0 00      LDY #&00
     8435   A6 B2      LDX &B2
     8437   18         CLC
     8438   08         PHP
.L85D8
     8439   28         PLP
     843A   20 D9 9C   JSR &9CD9
     843D   08         PHP
     843E   20 82 B6   JSR &B682
     8441   D0 F6      BNE &8439
     8443   28         PLP
     8444   60         RTS
.L85B3
     8445   A6 B2      LDX &B2
     8447   F0 0F      BEQ &8458
     8449   18         CLC
     844A   08         PHP
     844B   A0 00      LDY #&00
.L85BB
     844D   28         PLP
     844E   20 D2 9C   JSR &9CD2
     8451   08         PHP
     8452   D9 34 C2   CMP &C234,Y
     8455   F0 D6      BEQ &842D
     8457   28         PLP
.L85EB
     8458   AD FE C1   LDA &C1FE
     845B   C9 F6      CMP #&F6
     845D   90 0D      BCC &846C
     845F   20 E2 81   JSR &81E2
     8462   99
     8463   4D 61 70 ...
     846B   00
.L85FF
     846C   AE FE C1   LDX &C1FE
.L8602
     846F   E4 B2      CPX &B2
     8471   F0 0F      BEQ &8482
     8473   CA         DEX
     8474   BD 00 C0   LDA &C000,X
     8477   9D 03 C0   STA &C003,X
     847A   BD 00 C1   LDA &C100,X
     847D   9D 03 C1   STA &C103,X
     8480   80 ED      BRA &846F
.L8615
     8482   A0 00      LDY #&00
.L8617
     8484   B9 34 C2   LDA &C234,Y
     8487   9D 00 C0   STA &C000,X
     848A   B9 37 C2   LDA &C237,Y
     848D   9D 00 C1   STA &C100,X
     8490   20 82 B6   JSR &B682
     8493   D0 EF      BNE &8484
     8495   AD FE C1   LDA &C1FE
     8498   69 02      ADC #&02
     849A   8D FE C1   STA &C1FE
.L8631
     849D   60         RTS
.L8632
     849E   A2 00      LDX #&00
     84A0   8E 5D C2   STX &C25D
     84A3   8E 5E C2   STX &C25E
     84A6   8E 5F C2   STX &C25F
.L863D
     84A9   EC FE C1   CPX &C1FE
     84AC   F0 EF      BEQ &849D
     84AE   A0 00      LDY #&00
     84B0   18         CLC
     84B1   08         PHP
.L8646
     84B2   28         PLP
     84B3   BD 00 C1   LDA &C100,X
     84B6   79 5D C2   ADC &C25D,Y
     84B9   99 5D C2   STA &C25D,Y
     84BC   08         PHP
     84BD   20 82 B6   JSR &B682
     84C0   D0 F0      BNE &84B2
     84C2   28         PLP
     84C3   80 E4      BRA &84A9
.L865B
     84C5   A2 FF      LDX #&FF
     84C7   86 B3      STX &B3
     84C9   E8         INX
.L8660
     84CA   EC FE C1   CPX &C1FE
     84CD   90 7A      BCC &8549
     84CF   A6 B3      LDX &B3
     84D1   E0 FF      CPX #&FF
     84D3   D0 3A      BNE &850F
     84D5   20 9E 84   JSR &849E
     84D8   A0 00      LDY #&00
     84DA   A2 02      LDX #&02
     84DC   38         SEC
.L8673
     84DD   B9 5D C2   LDA &C25D,Y
     84E0   F9 3D C2   SBC &C23D,Y
     84E3   C8         INY
     84E4   CA         DEX
     84E5   10 F6      BPL &84DD
     84E7   B0 0E      BCS &84F7
.L867F
     84E9   20 E2 81   JSR &81E2
     84EC   C6
     84ED   44 69 73 ...
     84F6   00
.L868D
     84F7   20 E2 81   JSR &81E2
     84FA   98
     84FB   43 6F 6D ...
     850E   00
.L86A5
     850F   A0 02      LDY #&02
.L86A7
     8511   CA         DEX
     8512   BD 00 C0   LDA &C000,X
     8515   99 3A C2   STA &C23A,Y
     8518   88         DEY
     8519   10 F6      BPL &8511
     851B   C8         INY
     851C   A6 B3      LDX &B3
     851E   18         CLC
     851F   08         PHP
.L86B6
     8520   28         PLP
     8521   BD FD BF   LDA &BFFD,X
     8524   79 3D C2   ADC &C23D,Y
     8527   9D FD BF   STA &BFFD,X
     852A   08         PHP
     852B   20 82 B6   JSR &B682
     852E   D0 F0      BNE &8520
     8530   28         PLP
     8531   A0 00      LDY #&00
     8533   A6 B3      LDX &B3
     8535   38         SEC
     8536   08         PHP
.L86CE
     8537   28         PLP
     8538   BD FD C0   LDA &C0FD,X
     853B   F9 3D C2   SBC &C23D,Y
     853E   9D FD C0   STA &C0FD,X
     8541   08         PHP
     8542   20 82 B6   JSR &B682
     8545   D0 F0      BNE &8537
     8547   28         PLP
     8548   60         RTS
.L86E1
     8549   A0 02      LDY #&02
     854B   E8         INX
     854C   E8         INX
     854D   E8         INX
     854E   86 B2      STX &B2
.L86E8
     8550   CA         DEX
     8551   BD 00 C1   LDA &C100,X
     8554   D9 3D C2   CMP &C23D,Y
     8557   90 3B      BCC &8594
     8559   D0 30      BNE &858B
     855B   88         DEY
     855C   10 F2      BPL &8550
     855E   A6 B2      LDX &B2
     8560   A0 02      LDY #&02
.L86FA
     8562   CA         DEX
     8563   BD 00 C0   LDA &C000,X
     8566   99 3A C2   STA &C23A,Y
     8569   88         DEY
     856A   10 F6      BPL &8562
     856C   A6 B2      LDX &B2
.L8706
     856E   EC FE C1   CPX &C1FE
     8571   B0 0F      BCS &8582
     8573   BD 00 C0   LDA &C000,X
     8576   9D FD BF   STA &BFFD,X
     8579   BD 00 C1   LDA &C100,X
     857C   9D FD C0   STA &C0FD,X
     857F   E8         INX
     8580   D0 EC      BNE &856E
.L871A
     8582   AD FE C1   LDA &C1FE
     8585   E9 03      SBC #&03
     8587   8D FE C1   STA &C1FE
     858A   60         RTS
.L8723
     858B   A6 B3      LDX &B3
     858D   E8         INX
     858E   D0 04      BNE &8594
     8590   A5 B2      LDA &B2
     8592   85 B3      STA &B3
.L872C
     8594   A6 B2      LDX &B2
     8596   4C CA 84   JMP &84CA
.L8731
     8599   E6 B4      INC &B4
     859B   D0 02      BNE &859F
     859D   E6 B5      INC &B5
.L8737
     859F   60         RTS
.L8738
     85A0   20 1A A2   JSR &A21A
     85A3   20 50 8B   JSR &8B50
     85A6   A0 00      LDY #&00
     85A8   8C C0 C2   STY &C2C0
.L8743
     85AB   20 39 92   JSR &9239
     85AE   C9 2E      CMP #&2E
     85B0   F0 08      BEQ &85BA
     85B2   C9 22      CMP #&22
     85B4   F0 04      BEQ &85BA
     85B6   C9 20      CMP #&20
     85B8   B0 02      BCS &85BC
.L8753
     85BA   A2 00      LDX #&00
.L8755
     85BC   60         RTS
.L8756
     85BD   A0 0A      LDY #&0A
.L8758
     85BF   20 AB 85   JSR &85AB
     85C2   F0 10      BEQ &85D4
     85C4   88         DEY
     85C5   10 F8      BPL &85BF
.L8760
     85C7   20 FB 81   JSR &81FB
     85CA   CC
     85CB   42 61 64 ...
     85D3   00
.L876D
     85D4   A0 09      LDY #&09
.L876F
     85D6   20 9A B6   JSR &B69A
     85D9   99 62 C2   STA &C262,Y
     85DC   88         DEY
     85DD   10 F7      BPL &85D6
     85DF   C8         INY
     85E0   A2 00      LDX #&00
.L877C
     85E2   E0 0A      CPX #&0A
     85E4   B0 41      BCS &8627
     85E6   BD 62 C2   LDA &C262,X
     85E9   C9 21      CMP #&21
     85EB   90 3A      BCC &8627
     85ED   09 20      ORA #&20
     85EF   8D 2B C2   STA &C22B
     85F2   C0 0A      CPY #&0A
     85F4   B0 1B      BCS &8611
     85F6   20 AB 85   JSR &85AB
     85F9   F0 1B      BEQ &8616
     85FB   C9 2A      CMP #&2A
     85FD   F0 38      BEQ &8637
     85FF   C9 23      CMP #&23
     8601   F0 09      BEQ &860C
     8603   09 20      ORA #&20
     8605   CD 2B C2   CMP &C22B
     8608   90 0C      BCC &8616
     860A   D0 04      BNE &8610
.L87A6
     860C   E8         INX
     860D   C8         INY
     860E   D0 D2      BNE &85E2
.L87AA
     8610   60         RTS
.L87AB
     8611   20 AB 85   JSR &85AB
     8614   D0 B1      BNE &85C7
.L87B0
     8616   20 AB 85   JSR &85AB
     8619   C9 23      CMP #&23
     861B   F0 17      BEQ &8634
     861D   C9 2A      CMP #&2A
     861F   F0 13      BEQ &8634
     8621   88         DEY
     8622   10 F2      BPL &8616
     8624   C9 FF      CMP #&FF
     8626   60         RTS
.L87C1
     8627   C0 0A      CPY #&0A
     8629   F0 E5      BEQ &8610
     862B   20 AB 85   JSR &85AB
     862E   F0 E0      BEQ &8610
     8630   C9 2A      CMP #&2A
     8632   F0 03      BEQ &8637
.L87CE
     8634   C9 00      CMP #&00
     8636   60         RTS
.L87D1
     8637   C8         INY
.L87D2
     8638   BD 62 C2   LDA &C262,X
     863B   29 7F      AND #&7F
     863D   C9 21      CMP #&21
     863F   90 19      BCC &865A
     8641   E0 0A      CPX #&0A
     8643   B0 15      BCS &865A
     8645   DA         PHX
     8646   5A         PHY
     8647   20 E2 85   JSR &85E2
     864A   F0 08      BEQ &8654
     864C   7A         PLY
     864D   FA         PLX
     864E   E8         INX
     864F   D0 E7      BNE &8638
.L87EB
     8651   E0 00      CPX #&00
     8653   60         RTS
.L87EE
     8654   68         PLA
     8655   68         PLA
.L87F0
     8656   A9 00      LDA #&00
     8658   38         SEC
     8659   60         RTS
.L87F4
     865A   C0 0A      CPY #&0A
     865C   B0 F8      BCS &8656
     865E   B1 B4      LDA (&B4),Y
     8660   C9 21      CMP #&21
     8662   90 F2      BCC &8656
     8664   C9 2E      CMP #&2E
     8666   F0 EE      BEQ &8656
     8668   C9 22      CMP #&22
     866A   F0 EA      BEQ &8656
     866C   C9 2A      CMP #&2A
     866E   F0 C7      BEQ &8637
     8670   D0 DF      BNE &8651
.L880C
     8672   20 1A A2   JSR &A21A
     8675   20 27 91   JSR &9127
     8678   20 03 A4   JSR &A403
.L8815
     867B   20 B8 B1   JSR &B1B8
     867E   F0 13      BEQ &8693
     8680   20 BD 85   JSR &85BD
     8683   F0 10      BEQ &8695
     8685   90 0E      BCC &8695
     8687   A5 B6      LDA &B6
     8689   69 19      ADC #&19
     868B   85 B6      STA &B6
     868D   90 EC      BCC &867B
     868F   E6 B7      INC &B7
     8691   D0 E8      BNE &867B
.L882E
     8693   C9 0F      CMP #&0F
.L8830
     8695   60         RTS
.L8831
     8696   01
     8697   00
     8698   C0
     8699   FF
     869A   FF
     869B   08
     869C   00
     869D   00
     869E   00
     869F   02
.L883B
     86A0   00
.L883C
     86A1   01
     86A2   00
     86A3   C4
     86A4   FF
     86A5   FF
     86A6   08
     86A7   00
     86A8   00
     86A9   02
     86AA   05
     86AB   00
.L8847
     86AC   C9 30      CMP #&30
     86AE   90 18      BCC &86C8
     86B0   C9 38      CMP #&38
     86B2   90 0B      BCC &86BF
     86B4   09 20      ORA #&20
     86B6   C9 61      CMP #&61
     86B8   90 0E      BCC &86C8
     86BA   C9 69      CMP #&69
     86BC   B0 0A      BCS &86C8
     86BE   3A         DEC A
.L885A
     86BF   48         PHA
.L8865
     86C0   68         PLA
     86C1   29 07      AND #&07
     86C3   4A         LSR A
     86C4   6A         ROR A
     86C5   6A         ROR A
     86C6   6A         ROR A
     86C7   60         RTS
.L886D
     86C8   4C C7 85   JMP &85C7
.L8870
     86CB   20 A0 85   JSR &85A0
     86CE   F0 F8      BEQ &86C8
.L8875
     86D0   20 A0 85   JSR &85A0
     86D3   F0 1F      BEQ &86F4
     86D5   C9 3A      CMP #&3A
     86D7   D0 63      BNE &873C
     86D9   20 99 85   JSR &8599
     86DC   AE 2F C2   LDX &C22F
     86DF   E8         INX
     86E0   D0 06      BNE &86E8
     86E2   AD 17 C3   LDA &C317
     86E5   8D 2F C2   STA &C22F
.L888D
     86E8   20 AB 85   JSR &85AB
     86EB   20 AC 86   JSR &86AC
     86EE   8D 17 C3   STA &C317
.L8896
     86F1   20 99 85   JSR &8599
.L8899
     86F4   AE 17 C3   LDX &C317
     86F7   E8         INX
     86F8   D0 08      BNE &8702
     86FA   AD D8 C2   LDA &C2D8
     86FD   29 80      AND #&80
.L88AA
     86FF   8D 17 C3   STA &C317
.L88AD
     8702   A9 10      LDA #&10
     8704   04 CD      TSB &CD
     8706   20 30 A5   JSR &A530
     8709   A9 10      LDA #&10
     870B   14 CD      TRB &CD
     870D   AD 2E C2   LDA &C22E
     8710   10 07      BPL &8719
     8712   A0 02      LDY #&02
.L88C3
     8714   20 B4 B5   JSR &B5B4
     8717   10 FB      BPL &8714
.L88CC
     8719   A0 86      LDY #&86
     871B   A2 A1      LDX #&A1
     871D   20 6F 81   JSR &816F
     8720   A9 02      LDA #&02
     8722   8D 14 C3   STA &C314
     8725   A9 00      LDA #&00
     8727   8D 15 C3   STA &C315
     872A   8D 16 C3   STA &C316
     872D   20 9C B0   JSR &B09C
     8730   A0 00      LDY #&00
     8732   20 AB 85   JSR &85AB
     8735   C9 2E      CMP #&2E
     8737   D0 23      BNE &875C
     8739   20 99 85   JSR &8599
.L88EF
     873C   A0 00      LDY #&00
     873E   20 AB 85   JSR &85AB
     8741   29 FD      AND #&FD
     8743   C9 24      CMP #&24
     8745   F0 AA      BEQ &86F1
     8747   20 1E B1   JSR &B11E
.L88FD
     874A   20 A0 91   JSR &91A0
     874D   D0 35      BNE &8784
     874F   C8         INY
     8750   8C A2 C2   STY &C2A2
     8753   20 AB 85   JSR &85AB
     8756   C9 2E      CMP #&2E
     8758   D0 1B      BNE &8775
     875A   80 7F      BRA &87DB
.L8910
     875C   A9 24      LDA #&24
     875E   8D 62 C2   STA &C262
     8761   A9 0D      LDA #&0D
     8763   8D 63 C2   STA &C263
     8766   A9 0B      LDA #&0B
     8768   85 B6      STA &B6
     876A   A9 92      LDA #&92
     876C   85 B7      STA &B7
     876E   A9 02      LDA #&02
     8770   8D C0 C2   STA &C2C0
     8773   A9 00      LDA #&00
.RTS4
     8775   60         RTS
.L8930
     8776   A2 01      LDX #&01
     8778   20 4F 93   JSR &934F
     877B   10 01      BPL &877E
     877D   E8         INX
.L8939
     877E   8E C0 C2   STX &C2C0
     8781   A9 00      LDA #&00
     8783   60         RTS
.L892A
     8784   20 72 86   JSR &8672
     8787   D0 EC      BNE &8775
.L893F
     8789   A0 00      LDY #&00
.L8941
     878B   20 AB 85   JSR &85AB
     878E   C9 21      CMP #&21
     8790   90 E4      BCC &8776
     8792   C9 22      CMP #&22
     8794   F0 E0      BEQ &8776
     8796   C9 2E      CMP #&2E
     8798   F0 03      BEQ &879D
     879A   C8         INY
     879B   D0 EE      BNE &878B
.L8953
     879D   8C A2 C2   STY &C2A2
.L8956
     87A0   20 4F 93   JSR &934F
     87A3   30 1A      BMI &87BF
     87A5   20 AD 87   JSR &87AD
     87A8   F0 F6      BEQ &87A0
.L8961
     87AA   A9 FF      LDA #&FF
     87AC   60         RTS
.L8964
     87AD   20 CC B5   JSR &B5CC
     87B0   90 02      BCC &87B4
     87B2   E6 B7      INC &B7
.L896F
     87B4   20 B8 B1   JSR &B1B8
     87B7   F0 F1      BEQ &87AA
     87B9   20 BD 85   JSR &85BD
     87BC   D0 EF      BNE &87AD
     87BE   60         RTS
.L897B
     87BF   A0 09      LDY #&09
     87C1   B1 B6      LDA (&B6),Y
     87C3   10 16      BPL &87DB
     87C5   29 7F      AND #&7F
     87C7   91 B6      STA (&B6),Y
     87C9   20 46 8D   JSR &8D46
.L8988
     87CC   20 FB 81   JSR &81FB
     87CF   B0
     87D0   42 61 64 ...
     87DA   00
.L8997
     87DB   AD A2 C2   LDA &C2A2
     87DE   38         SEC
     87DF   65 B4      ADC &B4
     87E1   85 B4      STA &B4
     87E3   90 02      BCC &87E7
     87E5   E6 B5      INC &B5
.L89A3
     87E7   AD 2E C2   LDA &C22E
     87EA   1A         INC A
     87EB   D0 07      BNE &87F4
     87ED   A0 02      LDY #&02
.L89AB
     87EF   20 B4 B5   JSR &B5B4
     87F2   10 FB      BPL &87EF
.L89B4
     87F4   A2 0A      LDX #&0A
.L89B6
     87F6   20 87 B6   JSR &B687
     87F9   10 FB      BPL &87F6
     87FB   A2 02      LDX #&02
     87FD   A0 16      LDY #&16
.L89C3
     87FF   20 8F B6   JSR &B68F
     8802   10 FB      BPL &87FF
     8804   20 6B 81   JSR &816B
     8807   4C 4A 87   JMP &874A
.L89D5
     880A   AD C0 C2   LDA &C2C0
.L89D8
     880D   48         PHA
     880E   AD 2F C2   LDA &C22F
     8811   C9 FF      CMP #&FF
     8813   F0 0B      BEQ &8820
     8815   8D 17 C3   STA &C317
     8818   A9 FF      LDA #&FF
     881A   8D 2F C2   STA &C22F
     881D   20 30 A5   JSR &A530
.L89EF
     8820   AD 2E C2   LDA &C22E
     8823   C9 FF      CMP #&FF
     8825   F0 2C      BEQ &8853
     8827   AA         TAX
     8828   A0 0A      LDY #&0A
.L89F9
     882A   B9 A1 86   LDA &86A1,Y
     882D   99 15 C2   STA &C215,Y
     8830   88         DEY
     8831   10 F7      BPL &882A
     8833   8E 16 C3   STX &C316
     8836   8E 1B C2   STX &C21B
     8839   AD 2D C2   LDA &C22D
     883C   8D 15 C3   STA &C315
     883F   8D 1C C2   STA &C21C
     8842   AD 2C C2   LDA &C22C
     8845   8D 14 C3   STA &C314
     8848   8D 1D C2   STA &C21D
     884B   A9 FF      LDA #&FF
     884D   8D 2E C2   STA &C22E
     8850   20 6B 81   JSR &816B
.L8A22
     8853   A5 CD      LDA &CD
     8855   8D 20 C3   STA &C320
     8858   20 33 A4   JSR &A433
     885B   A0 FB      LDY #&FB
.L8A2C
     885D   B9 00 C3   LDA &C300,Y
     8860   91 BA      STA (&BA),Y
     8862   88         DEY
     8863   D0 F8      BNE &885D
     8865   AD 00 C3   LDA &C300
     8868   91 BA      STA (&BA),Y
     886A   20 50 A4   JSR &A450
     886D   A6 B8      LDX &B8
     886F   A4 B9      LDY &B9
     8871   68         PLA
.RTS6
.L8A41
     8872   60         RTS
.L8A42
     8873   20 7B 88   JSR &887B
     8876   F0 FA      BEQ &8872
     8878   4C 74 81   JMP &8174
.L8A4A
     887B   AD 1A C2   LDA &C21A
     887E   C9 08      CMP #&08
     8880   F0 17      BEQ &8899
     8882   AD 20 C2   LDA &C220
     8885   F0 12      BEQ &8899
     8887   A9 00      LDA #&00
     8889   8D 20 C2   STA &C220
     888C   EE 21 C2   INC &C221
     888F   D0 08      BNE &8899
     8891   EE 22 C2   INC &C222
     8894   D0 03      BNE &8899
     8896   EE 23 C2   INC &C223
.L8A68
     8899   A2 15      LDX #&15
     889B   A0 C2      LDY #&C2
     889D   A9 FF      LDA #&FF
     889F   8D 1E C2   STA &C21E
.L8A71
     88A2   AD 23 C2   LDA &C223
     88A5   0D 22 C2   ORA &C222
     88A8   F0 48      BEQ &88F2
     88AA   20 85 80   JSR &8085
     88AD   D0 C3      BNE &8872
     88AF   A9 FF      LDA #&FF
     88B1   18         CLC
     88B2   6D 17 C2   ADC &C217
     88B5   8D 17 C2   STA &C217
     88B8   90 08      BCC &88C2
     88BA   EE 18 C2   INC &C218
     88BD   D0 03      BNE &88C2
     88BF   EE 19 C2   INC &C219
.L8A91
     88C2   A9 FF      LDA #&FF
     88C4   18         CLC
     88C5   6D 1D C2   ADC &C21D
     88C8   8D 1D C2   STA &C21D
     88CB   90 08      BCC &88D5
     88CD   EE 1C C2   INC &C21C
     88D0   D0 03      BNE &88D5
     88D2   EE 1B C2   INC &C21B
.L8AA4
     88D5   AD 21 C2   LDA &C221
     88D8   38         SEC
     88D9   E9 FF      SBC #&FF
     88DB   8D 21 C2   STA &C221
     88DE   B0 C2      BCS &88A2
     88E0   AD 22 C2   LDA &C222
     88E3   D0 03      BNE &88E8
     88E5   CE 23 C2   DEC &C223
.L8AB7
     88E8   CE 22 C2   DEC &C222
     88EB   80 B5      BRA &88A2
.lsr_a_4
     88ED   4A         LSR A
     88EE   4A         LSR A
     88EF   4A         LSR A
     88F0   4A         LSR A
.RTS7
     88F1   60         RTS
.L8ABC
     88F2   AD 21 C2   LDA &C221
     88F5   F0 08      BEQ &88FF
     88F7   8D 1E C2   STA &C21E
     88FA   20 85 80   JSR &8085
     88FD   D0 F2      BNE &88F1
.L8AC9
     88FF   AD 20 C2   LDA &C220
     8902   F0 ED      BEQ &88F1
.L8ACF
     8904   8D 1E C2   STA &C21E
     8907   AD 21 C2   LDA &C221
     890A   18         CLC
     890B   6D 1D C2   ADC &C21D
     890E   8D 1D C2   STA &C21D
     8911   90 08      BCC &891B
     8913   EE 1C C2   INC &C21C
     8916   D0 03      BNE &891B
     8918   EE 1B C2   INC &C21B
.L8AE6
     891B   AD 21 C2   LDA &C221
     891E   18         CLC
     891F   6D 17 C2   ADC &C217
     8922   8D 17 C2   STA &C217
     8925   90 08      BCC &892F
     8927   EE 18 C2   INC &C218
     892A   D0 03      BNE &892F
     892C   EE 19 C2   INC &C219
.L8AFA
     892F   20 DB 81   JSR &81DB
     8932   20 7C 80   JSR &807C
.L8B00
     8935   20 3E 89   JSR &893E
     8938   F0 B7      BEQ &88F1
     893A   C6 CE      DEC &CE
     893C   10 F7      BPL &8935
.L8B09
     893E   A2 15      LDX #&15
     8940   A0 C2      LDY #&C2
     8942   86 B0      STX &B0
     8944   84 B1      STY &B1
     8946   AE 19 C2   LDX &C219
     8949   AD 18 C2   LDA &C218
     894C   20 53 80   JSR &8053
     894F   AD 17 C3   LDA &C317
     8952   0D 1B C2   ORA &C21B
     8955   8D 1B C2   STA &C21B
     8958   8D 33 C3   STA &C333
.L8B4F
     895B   AD 33 C3   LDA &C333
     895E   AD 16 C2   LDA &C216
     8961   85 B2      STA &B2
     8963   AD 17 C2   LDA &C217
     8966   85 B3      STA &B3
     8968   AD 18 C2   LDA &C218
     896B   C9 FE      CMP #&FE
     896D   90 06      BCC &8975
     896F   AD 19 C2   LDA &C219
     8972   1A         INC A
     8973   F0 03      BEQ &8978
.L8B6E
     8975   20 20 80   JSR &8020
.L8B71
     8978   AD 1E C2   LDA &C21E
     897B   AA         TAX
     897C   A9 01      LDA #&01
     897E   8D 1E C2   STA &C21E
     8981   A9 08      LDA #&08
     8983   8D 1A C2   STA &C21A
     8986   20 1D B8   JSR &B81D
     8989   18         CLC
     898A   20 0D B7   JSR &B70D
     898D   20 4D B8   JSR &B84D
     8990   24 CD      BIT &CD
     8992   50 0B      BVC &899F
     8994   DA         PHX
     8995   A2 27      LDX #&27
     8997   A0 C2      LDY #&C2
     8999   A9 01      LDA #&01
     899B   20 06 04   JSR &0406
     899E   FA         PLX
.L8B9B
     899F   DA         PHX
     89A0   20 D0 B6   JSR &B6D0
     89A3   FA         PLX
     89A4   DA         PHX
     89A5   20 74 BA   JSR &BA74
     89A8   68         PLA
     89A9   49 FF      EOR #&FF
     89AB   A8         TAY
     89AC   C8         INY
     89AD   20 30 BA   JSR &BA30
     89B0   20 30 BA   JSR &BA30
     89B3   20 2E BA   JSR &BA2E
.L8BBB
     89B6   4C 50 81   JMP &8150
.L8BBE
     89B9   20 CB 86   JSR &86CB
     89BC   F0 07      BEQ &89C5
     89BE   D0 0C      BNE &89CC
.L8BC5
     89C0   20 AD 87   JSR &87AD
     89C3   D0 07      BNE &89CC
.L8BCA
     89C5   20 4F 93   JSR &934F
     89C8   30 F6      BMI &89C0
.L8BD0
     89CA   A9 00      LDA #&00
.L8BD2
     89CC   60         RTS
.L8BD3
     89CD   20 8C 94   JSR &948C
     89D0   C9 5E      CMP #&5E
     89D2   D0 03      BNE &89D7
.L8BDB
     89D4   4C C7 85   JMP &85C7
.L8BDE
     89D7   C9 40      CMP #&40
     89D9   F0 F9      BEQ &89D4
.L8BE2
     89DB   20 FB 81   JSR &81FB
     89DE   D6
     89DF   4E 6F 74 ...
     89E8   00
.L8BF0
     89E9   20 84 8D   JSR &8D84
     89EC   D0 DE      BNE &89CC
     89EE   20 E3 9C   JSR &9CE3
     89F1   10 D7      BPL &89CA
.L8BFB
     89F3   20 FB 81   JSR &81FB
     89F6   BD
     89F7   41 63 63 ...
     8A07   00
.L8C10
     8A08   20 B9 89   JSR &89B9
     8A0B   D0 C0      BNE &89CD
     8A0D   20 B8 B1   JSR &B1B8
     8A10   10 E1      BPL &89F3
.L8C1B
     8A12   A0 06      LDY #&06
     8A14   B1 B8      LDA (&B8),Y
     8A16   D0 0D      BNE &8A25
     8A18   88         DEY
.L8C22
     8A19   B1 B8      LDA (&B8),Y
     8A1B   99 14 C2   STA &C214,Y
     8A1E   88         DEY
     8A1F   C0 01      CPY #&01
     8A21   D0 F6      BNE &8A19
     8A23   F0 0B      BEQ &8A30
.L8C2E
     8A25   A2 04      LDX #&04
     8A27   A0 0D      LDY #&0D
.L8C32
     8A29   B1 B6      LDA (&B6),Y
     8A2B   20 E8 9C   JSR &9CE8
     8A2E   D0 F9      BNE &8A29
.L8C3B
     8A30   A9 01      LDA #&01
     8A32   8D 15 C2   STA &C215
     8A35   A9 08      LDA #&08
     8A37   8D 1A C2   STA &C21A
     8A3A   A9 00      LDA #&00
     8A3C   8D 1F C2   STA &C21F
     8A3F   A0 16      LDY #&16
     8A41   A2 03      LDX #&03
.L8C4E
     8A43   B1 B6      LDA (&B6),Y
     8A45   9D 1A C2   STA &C21A,X
     8A48   C8         INY
     8A49   CA         DEX
     8A4A   D0 F7      BNE &8A43
     8A4C   A0 15      LDY #&15
     8A4E   A2 04      LDX #&04
.L8C5B
     8A50   B1 B6      LDA (&B6),Y
     8A52   9D 1F C2   STA &C21F,X
     8A55   88         DEY
     8A56   CA         DEX
     8A57   D0 F7      BNE &8A50
     8A59   20 73 88   JSR &8873
.L8C67
     8A5C   20 62 8A   JSR &8A62
     8A5F   4C 0A 88   JMP &880A
.L8C6D
     8A62   20 3E 92   JSR &923E
.L8C70
     8A65   A0 15      LDY #&15
     8A67   A2 0B      LDX #&0B
.L8C74
     8A69   B1 B6      LDA (&B6),Y
     8A6B   20 E8 9C   JSR &9CE8
     8A6E   10 F9      BPL &8A69
     8A70   A0 0D      LDY #&0D
     8A72   A2 0B      LDX #&0B
.L8C81
     8A74   BD 15 C2   LDA &C215,X
     8A77   91 B8      STA (&B8),Y
     8A79   88         DEY
     8A7A   CA         DEX
     8A7B   10 F7      BPL &8A74
     8A7D   A0 08      LDY #&08
.RdLp
     8A7F   C0 04      CPY #&04
     8A81   D0 02      BNE &8A85
     8A83   88         DEY
     8A84   88         DEY
.RdNotE
     8A85   20 EE 9C   JSR &9CEE
     8A88   C0 04      CPY #&04
     8A8A   F0 08      BEQ &8A94
     8A8C   C0 02      CPY #&02
     8A8E   D0 06      BNE &8A96
     8A90   C8         INY
     8A91   C8         INY
     8A92   80 F1      BRA &8A85
.RdIsE
     8A94   88         DEY
     8A95   88         DEY
.RdNext
     8A96   88         DEY
     8A97   10 E6      BPL &8A7F
     8A99   AD 2B C2   LDA &C22B
     8A9C   A0 0E      LDY #&0E
     8A9E   91 B8      STA (&B8),Y
     8AA0   60         RTS
.L8CB3
     8AA1   20 25 B6   JSR &B625
     8AA4   20 84 8D   JSR &8D84
     8AA7   D0 0D      BNE &8AB6
     8AA9   20 E3 9C   JSR &9CE3
     8AAC   10 05      BPL &8AB3
     8AAE   A9 FF      LDA #&FF
     8AB0   8D C0 C2   STA &C2C0
.L8CCE
     8AB3   20 65 8A   JSR &8A65
.L8CD1
     8AB6   4C 0A 88   JMP &880A
.L8CD4
     8AB9   20 25 B6   JSR &B625
     8ABC   20 9F 8B   JSR &8B9F
     8ABF   20 84 8D   JSR &8D84
     8AC2   F0 05      BEQ &8AC9
     8AC4   20 A0 91   JSR &91A0
     8AC7   F0 15      BEQ &8ADE
.L8CEC
     8AC9   60         RTS
.L8CED
     8ACA   20 B9 8A   JSR &8AB9
     8ACD   F0 28      BEQ &8AF7
     8ACF   D0 05      BNE &8AD6
.L8CF4
     8AD1   20 B9 8A   JSR &8AB9
     8AD4   F0 19      BEQ &8AEF
.L8CF9
     8AD6   A0 00      LDY #&00
.L8CFB
     8AD8   B1 B4      LDA (&B4),Y
     8ADA   C9 2E      CMP #&2E
     8ADC   D0 03      BNE &8AE1
.L8D01
     8ADE   4C CD 89   JMP &89CD
.L8D04
     8AE1   C9 21      CMP #&21
     8AE3   90 07      BCC &8AEC
     8AE5   C9 22      CMP #&22
     8AE7   F0 03      BEQ &8AEC
     8AE9   C8         INY
     8AEA   D0 EC      BNE &8AD8
.L8D0F
     8AEC   A9 11      LDA #&11
     8AEE   60         RTS
.L8D12
     8AEF   20 4F 93   JSR &934F
     8AF2   10 03      BPL &8AF7
     8AF4   4C BD 92   JMP &92BD
.L8D1B
     8AF7   A0 02      LDY #&02
     8AF9   B1 B6      LDA (&B6),Y
     8AFB   10 0B      BPL &8B08
     8AFD   20 FB 81   JSR &81FB
     8B00   C3
     8B01   4C 6F 63 ...
     8B07   00
.L8D2C
     8B08   A2 09      LDX #&09
.L8D2E
     8B0A   BD AC C3   LDA &C3AC,X
     8B0D   F0 3C      BEQ &8B4B
     8B0F   20 4E B6   JSR &B64E
     8B12   D0 37      BNE &8B4B
     8B14   BD E8 C3   LDA &C3E8,X
     8B17   CD 14 C3   CMP &C314
     8B1A   D0 2F      BNE &8B4B
     8B1C   BD DE C3   LDA &C3DE,X
     8B1F   CD 15 C3   CMP &C315
     8B22   D0 27      BNE &8B4B
     8B24   BD D4 C3   LDA &C3D4,X
     8B27   CD 16 C3   CMP &C316
     8B2A   D0 1F      BNE &8B4B
     8B2C   A0 19      LDY #&19
     8B2E   B1 B6      LDA (&B6),Y
     8B30   DD F2 C3   CMP &C3F2,X
     8B33   D0 16      BNE &8B4B
.L8D5E
     8B35   20 FB 81   JSR &81FB
     8B38   C2
     8B39   43 61 6E ...
     8B4A   00
.L8D74
     8B4B   CA         DEX
     8B4C   10 BC      BPL &8B0A
     8B4E   E8         INX
     8B4F   60         RTS
.L8D79
     8B50   A0 00      LDY #&00
     8B52   20 AB 85   JSR &85AB
     8B55   D0 05      BNE &8B5C
     8B57   C9 2E      CMP #&2E
     8B59   F0 61      BEQ &8BBC
     8B5B   60         RTS
.L8D85
     8B5C   C9 3A      CMP #&3A
     8B5E   D0 0F      BNE &8B6F
     8B60   C8         INY
.L8D8A
     8B61   C8         INY
     8B62   20 AB 85   JSR &85AB
     8B65   D0 55      BNE &8BBC
     8B67   C9 2E      CMP #&2E
     8B69   D0 4B      BNE &8BB6
     8B6B   C8         INY
     8B6C   20 B7 8B   JSR &8BB7
.L8D98
     8B6F   29 FD      AND #&FD
     8B71   C9 24      CMP #&24
     8B73   F0 EC      BEQ &8B61
.L8D9E
     8B75   20 B7 8B   JSR &8BB7
     8B78   C9 5E      CMP #&5E
     8B7A   F0 04      BEQ &8B80
     8B7C   C9 40      CMP #&40
     8B7E   D0 0D      BNE &8B8D
.L8DA9
     8B80   C8         INY
     8B81   20 AB 85   JSR &85AB
     8B84   D0 36      BNE &8BBC
.L8DAF
     8B86   C9 2E      CMP #&2E
     8B88   D0 2C      BNE &8BB6
     8B8A   C8         INY
     8B8B   80 E8      BRA &8B75
.L8DB6
     8B8D   20 AB 85   JSR &85AB
     8B90   F0 F4      BEQ &8B86
     8B92   A2 05      LDX #&05
.L8DBD
     8B94   DD CE 8B   CMP &8BCE,X
     8B97   F0 23      BEQ &8BBC
     8B99   CA         DEX
     8B9A   10 F8      BPL &8B94
     8B9C   C8         INY
     8B9D   D0 EE      BNE &8B8D
.L8DC8
     8B9F   20 50 8B   JSR &8B50
.L8DCB
     8BA2   20 39 92   JSR &9239
     8BA5   C9 2A      CMP #&2A
     8BA7   F0 16      BEQ &8BBF
     8BA9   C9 23      CMP #&23
     8BAB   F0 12      BEQ &8BBF
     8BAD   C9 2E      CMP #&2E
     8BAF   F0 05      BEQ &8BB6
     8BB1   88         DEY
     8BB2   C0 FF      CPY #&FF
     8BB4   D0 EC      BNE &8BA2
.L8DE0
     8BB6   60         RTS
.L8DE1
     8BB7   20 AB 85   JSR &85AB
     8BBA   D0 FA      BNE &8BB6
.L8DE6
     8BBC   4C C7 85   JMP &85C7
.L8DE9
     8BBF   20 FB 81   JSR &81FB
     8BC2   FD
     8BC3   57 69 6C ...
     8BCD   00
.L8DF8
     8BCE   7F
     8BCF   5E 40 3A ...
.L8DFE
     8BD4   20 D1 8A   JSR &8AD1
.L8E01
     8BD7   D0 18      BNE &8BF1
     8BD9   A2 02      LDX #&02
     8BDB   20 F5 9C   JSR &9CF5
.L8E0B
     8BDE   20 FC 9C   JSR &9CFC
     8BE1   10 FB      BPL &8BDE
     8BE3   A0 18      LDY #&18
     8BE5   A2 02      LDX #&02
.L8E1A
     8BE7   B1 B6      LDA (&B6),Y
     8BE9   9D 34 C2   STA &C234,X
     8BEC   88         DEY
     8BED   CA         DEX
     8BEE   10 F7      BPL &8BE7
     8BF0   60         RTS
.L8E24
     8BF1   AD B1 C8   LDA &C8B1
     8BF4   F0 0D      BEQ &8C03
     8BF6   20 FB 81   JSR &81FB
     8BF9   B3
     8BFA   44 69 72 ...
     8C02   00
.L8E36
     8C03   A5 B4      LDA &B4
     8C05   8D 27 C2   STA &C227
     8C08   A5 B5      LDA &B5
     8C0A   8D 28 C2   STA &C228
     8C0D   A9 B1      LDA #&B1
     8C0F   85 B4      STA &B4
     8C11   A9 C8      LDA #&C8
     8C13   85 B5      STA &B5
     8C15   A0 1A      LDY #&1A
     8C17   A2 06      LDX #&06
     8C19   A9 00      LDA #&00
.L8E4E
     8C1B   9D 33 C2   STA &C233,X
     8C1E   CA         DEX
     8C1F   D0 FA      BNE &8C1B
.L8E54
     8C21   A1 B4      LDA (&B4,X)
     8C23   91 B4      STA (&B4),Y
     8C25   A5 B4      LDA &B4
     8C27   C5 B6      CMP &B6
     8C29   D0 06      BNE &8C31
     8C2B   A5 B5      LDA &B5
     8C2D   C5 B7      CMP &B7
     8C2F   F0 0A      BEQ &8C3B
.L8E64
     8C31   A5 B4      LDA &B4
     8C33   D0 02      BNE &8C37
     8C35   C6 B5      DEC &B5
.L8E6A
     8C37   C6 B4      DEC &B4
     8C39   80 E6      BRA &8C21
.L8E6F
     8C3B   AD 27 C2   LDA &C227
     8C3E   85 B4      STA &B4
     8C40   AD 28 C2   LDA &C228
     8C43   85 B5      STA &B5
     8C45   60         RTS
.L8E7A
     8C46   A0 09      LDY #&09
.L8E7C
     8C48   20 39 92   JSR &9239
     8C4B   C9 21      CMP #&21
     8C4D   90 04      BCC &8C53
     8C4F   C9 22      CMP #&22
     8C51   D0 02      BNE &8C55
.L8E88
     8C53   A9 0D      LDA #&0D
.L8E8A
     8C55   C0 02      CPY #&02
     8C57   B0 02      BCS &8C5B
     8C59   09 80      ORA #&80
.L8E90
     8C5B   91 B6      STA (&B6),Y
     8C5D   88         DEY
     8C5E   10 E8      BPL &8C48
     8C60   60         RTS
.L8E96
     8C61   A0 11      LDY #&11
.L8E98
     8C63   B1 B8      LDA (&B8),Y
     8C65   99 15 C2   STA &C215,Y
     8C68   88         DEY
     8C69   10 F8      BPL &8C63
     8C6B   A0 12      LDY #&12
     8C6D   38         SEC
     8C6E   A2 03      LDX #&03
.L8EA5
     8C70   B9 11 C2   LDA &C211,Y
     8C73   F9 0D C2   SBC &C20D,Y
     8C76   91 B6      STA (&B6),Y
     8C78   C8         INY
     8C79   CA         DEX
     8C7A   10 F4      BPL &8C70
     8C7C   A0 0A      LDY #&0A
.L8EB3
     8C7E   B9 0D C2   LDA &C20D,Y
     8C81   91 B6      STA (&B6),Y
     8C83   C8         INY
     8C84   C0 12      CPY #&12
     8C86   D0 F6      BNE &8C7E
     8C88   A5 B6      LDA &B6
     8C8A   48         PHA
     8C8B   A5 B7      LDA &B7
     8C8D   48         PHA
.L8EC3
     8C8E   20 9F B6   JSR &B69F
.L8ECB
     8C91   20 B8 B1   JSR &B1B8
     8C94   F0 22      BEQ &8CB8
     8C96   A0 19      LDY #&19
     8C98   B1 B6      LDA (&B6),Y
     8C9A   CD FA C8   CMP &C8FA
     8C9D   F0 09      BEQ &8CA8
     8C9F   20 CC B5   JSR &B5CC
     8CA2   90 ED      BCC &8C91
     8CA4   E6 B7      INC &B7
     8CA6   B0 E9      BCS &8C91
.L8EE7
     8CA8   AD FA C8   LDA &C8FA
     8CAB   18         CLC
     8CAC   F8         SED
     8CAD   69 01      ADC #&01
     8CAF   D8         CLD
     8CB0   8D FA C8   STA &C8FA
     8CB3   8D 00 C4   STA &C400
     8CB6   80 D6      BRA &8C8E
.L8EF8
     8CB8   68         PLA
     8CB9   85 B7      STA &B7
     8CBB   68         PLA
     8CBC   85 B6      STA &B6
     8CBE   A0 19      LDY #&19
     8CC0   AD FA C8   LDA &C8FA
     8CC3   91 B6      STA (&B6),Y
     8CC5   A9 01      LDA #&01
     8CC7   8D 15 C2   STA &C215
     8CCA   A2 04      LDX #&04
.L8F0C
     8CCC   BD 1E C2   LDA &C21E,X
     8CCF   9D 15 C2   STA &C215,X
     8CD2   CA         DEX
     8CD3   D0 F7      BNE &8CCC
     8CD5   A9 0A      LDA #&0A
     8CD7   8D 1A C2   STA &C21A
     8CDA   9C 1E C2   STZ &C21E
     8CDD   9C 1F C2   STZ &C21F
     8CE0   A0 12      LDY #&12
.L8F26
     8CE2   B1 B6      LDA (&B6),Y
     8CE4   99 0E C2   STA &C20E,Y
     8CE7   C8         INY
     8CE8   C0 16      CPY #&16
     8CEA   D0 F6      BNE &8CE2
     8CEC   20 F5 9C   JSR &9CF5
     8CEF   A2 02      LDX #&02
.L8F38
     8CF1   A9 00      LDA #&00
     8CF3   C8         INY
     8CF4   71 B6      ADC (&B6),Y
     8CF6   99 2A C2   STA &C22A,Y
     8CF9   CA         DEX
     8CFA   10 F5      BPL &8CF1
     8CFC   90 03      BCC &8D01
     8CFE   4C E9 84   JMP &84E9
.L8F48
     8D01   A0 16      LDY #&16
     8D03   A9 FF      LDA #&FF
     8D05   91 B6      STA (&B6),Y
     8D07   C8         INY
     8D08   91 B6      STA (&B6),Y
     8D0A   C8         INY
     8D0B   91 B6      STA (&B6),Y
     8D0D   4C 6F 83   JMP &836F
.L8F57
     8D10   20 06 9D   JSR &9D06
.L8F5D
     8D13   20 61 8C   JSR &8C61
     8D16   20 C5 84   JSR &84C5
.L8F63
     8D19   A0 18      LDY #&18
     8D1B   A2 02      LDX #&02
.L8F67
     8D1D   BD 3A C2   LDA &C23A,X
     8D20   91 B6      STA (&B6),Y
     8D22   88         DEY
     8D23   CA         DEX
     8D24   10 F7      BPL &8D1D
     8D26   A2 02      LDX #&02
     8D28   A0 06      LDY #&06
.L8F74
     8D2A   BD 3A C2   LDA &C23A,X
     8D2D   99 15 C2   STA &C215,Y
     8D30   C8         INY
     8D31   CA         DEX
     8D32   10 F6      BPL &8D2A
     8D34   60         RTS
.L8F7F
     8D35   20 10 8D   JSR &8D10
     8D38   20 73 88   JSR &8873
     8D3B   80 03      BRA &8D40
.L8F88
     8D3D   20 10 8D   JSR &8D10
.L8F8B
     8D40   20 46 8D   JSR &8D46
     8D43   4C 5C 8A   JMP &8A5C
.L8F91
     8D46   20 03 A4   JSR &A403
     8D49   20 AE 8D   JSR &8DAE
     8D4C   A2 0A      LDX #&0A
.L8F99
     8D4E   20 87 B6   JSR &B687
     8D51   10 FB      BPL &8D4E
     8D53   A9 0A      LDA #&0A
     8D55   20 0F B6   JSR &B60F
     8D58   20 6B 81   JSR &816B
     8D5B   20 6D B6   JSR &B66D
     8D5E   AD FC C1   LDA &C1FC
     8D61   9D 22 C3   STA &C322,X
     8D64   AD 44 FE   LDA &FE44
     8D67   9D 21 C3   STA &C321,X
     8D6A   8D FB C1   STA &C1FB
     8D6D   20 FE 8D   JSR &8DFE
     8D70   8E FF C0   STX &C0FF
     8D73   8D FF C1   STA &C1FF
     8D76   A2 13      LDX #&13
     8D78   A0 8E      LDY #&8E
     8D7A   20 6F 81   JSR &816F
     8D7D   A9 10      LDA #&10
     8D7F   14 CD      TRB &CD
     8D81   A9 00      LDA #&00
     8D83   60         RTS
.L8FE8
     8D84   20 CB 86   JSR &86CB
     8D87   08         PHP
     8D88   48         PHA
     8D89   20 8F 8D   JSR &8D8F
     8D8C   68         PLA
     8D8D   28         PLP
.L8FF2
     8D8E   60         RTS
.L8FF3
     8D8F   20 AE 8D   JSR &8DAE
     8D92   20 FE 8D   JSR &8DFE
     8D95   CD FF C1   CMP &C1FF
     8D98   D0 05      BNE &8D9F
     8D9A   EC FF C0   CPX &C0FF
     8D9D   F0 EF      BEQ &8D8E
.L9003
     8D9F   20 E2 81   JSR &81E2
     8DA2   A9
     8DA3   42 61 64 ...
     8DAD   00
.L9012
     8DAE   AE FE C1   LDX &C1FE
     8DB1   F0 DB      BEQ &8D8E
     8DB3   A9 00      LDA #&00
.L9019
     8DB5   1D FF BF   ORA &BFFF,X
     8DB8   1D FF C0   ORA &C0FF,X
     8DBB   CA         DEX
     8DBC   F0 E1      BEQ &8D9F
     8DBE   CA         DEX
     8DBF   F0 DE      BEQ &8D9F
     8DC1   CA         DEX
     8DC2   D0 F1      BNE &8DB5
     8DC4   29 E0      AND #&E0
     8DC6   D0 D7      BNE &8D9F
     8DC8   AE FE C1   LDX &C1FE
     8DCB   E0 06      CPX #&06
     8DCD   90 BF      BCC &8D8E
     8DCF   A2 03      LDX #&03
.L9035
     8DD1   A0 02      LDY #&02
     8DD3   18         CLC
.L9038
     8DD4   20 D2 9C   JSR &9CD2
     8DD7   48         PHA
     8DD8   E8         INX
     8DD9   88         DEY
     8DDA   10 F8      BPL &8DD4
     8DDC   B0 C1      BCS &8D9F
     8DDE   A0 02      LDY #&02
.L9047
     8DE0   68         PLA
     8DE1   CA         DEX
     8DE2   DD 00 C0   CMP &C000,X
     8DE5   90 07      BCC &8DEE
     8DE7   D0 B6      BNE &8D9F
     8DE9   88         DEY
     8DEA   10 F4      BPL &8DE0
     8DEC   30 B1      BMI &8D9F
.L9055
     8DEE   68         PLA
     8DEF   CA         DEX
     8DF0   88         DEY
     8DF1   10 FB      BPL &8DEE
     8DF3   48         PHA
     8DF4   E8         INX
     8DF5   E8         INX
     8DF6   E8         INX
     8DF7   E8         INX
     8DF8   EC FE C1   CPX &C1FE
     8DFB   90 D4      BCC &8DD1
     8DFD   60         RTS
.L9065
     8DFE   18         CLC
     8DFF   A0 FF      LDY #&FF
     8E01   98         TYA
.L9069
     8E02   79 FF BF   ADC &BFFF,Y
     8E05   88         DEY
     8E06   D0 FA      BNE &8E02
     8E08   AA         TAX
     8E09   88         DEY
     8E0A   98         TYA
     8E0B   18         CLC
.L9073
     8E0C   79 FF C0   ADC &C0FF,Y
     8E0F   88         DEY
     8E10   D0 FA      BNE &8E0C
     8E12   60         RTS
.L907A
     8E13   01
     8E14   00
     8E15   C0
     8E16   FF
     8E17   FF
     8E18   0A
     8E19   00
     8E1A   00
     8E1B   00
     8E1C   02
     8E1D   00
.L9085
     8E1E   8D 23 C2   STA &C223
     8E21   20 84 8D   JSR &8D84
     8E24   F0 03      BEQ &8E29
     8E26   A9 00      LDA #&00
     8E28   60         RTS
.L9090
     8E29   AD 23 C2   LDA &C223
     8E2C   C9 03      CMP #&03
     8E2E   F0 1F      BEQ &8E4F
     8E30   A0 05      LDY #&05
     8E32   A2 03      LDX #&03
.L909B
     8E34   B1 B8      LDA (&B8),Y
     8E36   20 E8 9C   JSR &9CE8
     8E39   10 F9      BPL &8E34
     8E3B   A0 0D      LDY #&0D
     8E3D   A2 03      LDX #&03
.L90A8
     8E3F   BD 15 C2   LDA &C215,X
     8E42   91 B6      STA (&B6),Y
     8E44   88         DEY
     8E45   CA         DEX
     8E46   10 F7      BPL &8E3F
     8E48   AD 23 C2   LDA &C223
     8E4B   C9 02      CMP #&02
     8E4D   F0 44      BEQ &8E93
.L90B8
     8E4F   A0 09      LDY #&09
     8E51   A2 03      LDX #&03
.L90BC
     8E53   B1 B8      LDA (&B8),Y
     8E55   20 E8 9C   JSR &9CE8
     8E58   10 F9      BPL &8E53
     8E5A   A0 11      LDY #&11
     8E5C   A2 03      LDX #&03
.L90C9
     8E5E   BD 15 C2   LDA &C215,X
     8E61   91 B6      STA (&B6),Y
     8E63   88         DEY
     8E64   CA         DEX
     8E65   10 F7      BPL &8E5E
     8E67   AE 23 C2   LDX &C223
     8E6A   CA         DEX
     8E6B   D0 26      BNE &8E93
.L90D8
     8E6D   A0 0E      LDY #&0E
     8E6F   B1 B8      LDA (&B8),Y
     8E71   8D 2B C2   STA &C22B
     8E74   A0 08      LDY #&08
.WrLp
     8E76   C0 04      CPY #&04
     8E78   D0 02      BNE &8E7C
     8E7A   88         DEY
     8E7B   88         DEY
.WrNotE
     8E7C   20 EE 9C   JSR &9CEE
     8E7F   6A         ROR A
     8E80   91 B6      STA (&B6),Y
     8E82   C0 04      CPY #&04
     8E84   F0 08      BEQ &8E8E
     8E86   C0 02      CPY #&02
     8E88   D0 06      BNE &8E90
     8E8A   C8         INY
     8E8B   C8         INY
     8E8C   80 EE      BRA &8E7C
.WrIsE
     8E8E   88         DEY
     8E8F   88         DEY
.WrNext
     8E90   88         DEY
     8E91   10 E3      BPL &8E76
.L9104
     8E93   20 46 8D   JSR &8D46
     8E96   4C B3 8A   JMP &8AB3
.L910A
     8E99   20 84 8D   JSR &8D84
     8E9C   F0 CF      BEQ &8E6D
     8E9E   A9 00      LDA #&00
     8EA0   60         RTS
     8EA1   20 1A A2   JSR &A21A
     8EA4   20 57 B6   JSR &B657
.L9127
     8EA7   20 B9 8A   JSR &8AB9
     8EAA   F0 05      BEQ &8EB1
     8EAC   A9 00      LDA #&00
     8EAE   4C 0D 88   JMP &880D
.L9131
     8EB1   20 F7 8A   JSR &8AF7
     8EB4   20 4F 93   JSR &934F
     8EB7   10 34      BPL &8EED
     8EB9   A0 03      LDY #&03
.L913C
     8EBB   B9 2C C2   LDA &C22C,Y
     8EBE   99 30 C2   STA &C230,Y
     8EC1   88         DEY
     8EC2   10 F7      BPL &8EBB
     8EC4   20 64 B6   JSR &B664
     8EC7   20 CE 91   JSR &91CE
     8ECA   AD 05 C4   LDA &C405
     8ECD   08         PHP
     8ECE   20 0D 88   JSR &880D
     8ED1   A0 03      LDY #&03
.L9159
     8ED3   20 0C 9D   JSR &9D0C
     8ED6   10 FB      BPL &8ED3
     8ED8   28         PLP
     8ED9   F0 12      BEQ &8EED
     8EDB   20 FB 81   JSR &81FB
     8EDE   B4
     8EDF   44 69 72 ...
     8EEC   00
.L9177
     8EED   A2 02      LDX #&02
     8EEF   20 F5 9C   JSR &9CF5
.L917F
     8EF2   20 FC 9C   JSR &9CFC
     8EF5   10 FB      BPL &8EF2
     8EF7   A0 18      LDY #&18
     8EF9   A2 02      LDX #&02
.L918E
     8EFB   B1 B6      LDA (&B6),Y
     8EFD   9D 34 C2   STA &C234,X
     8F00   88         DEY
     8F01   CA         DEX
     8F02   10 F7      BPL &8EFB
     8F04   20 4F 93   JSR &934F
     8F07   10 7C      BPL &8F85
     8F09   AE 2F C2   LDX &C22F
     8F0C   E0 FF      CPX #&FF
     8F0E   F0 05      BEQ &8F15
     8F10   EC 17 C3   CPX &C317
     8F13   D0 22      BNE &8F37
.L91A9
     8F15   A2 02      LDX #&02
.L91AB
     8F17   BD 34 C2   LDA &C234,X
     8F1A   DD 2C C2   CMP &C22C,X
     8F1D   D0 18      BNE &8F37
     8F1F   CA         DEX
     8F20   10 F5      BPL &8F17
     8F22   20 FB 81   JSR &81FB
     8F25   96
     8F26   43 61 6E ...
     8F36   00
.L91CB
     8F37   AD 17 C3   LDA &C317
     8F3A   CD 1B C3   CMP &C31B
     8F3D   D0 26      BNE &8F65
     8F3F   A2 02      LDX #&02
.L91D5
     8F41   BD 34 C2   LDA &C234,X
     8F44   DD 18 C3   CMP &C318,X
     8F47   D0 1C      BNE &8F65
     8F49   CA         DEX
     8F4A   10 F5      BPL &8F41
     8F4C   20 FB 81   JSR &81FB
     8F4F   97
     8F50   43 61 6E ...
     8F64   00
.L91F9
     8F65   AD 17 C3   LDA &C317
     8F68   CD 1F C3   CMP &C31F
     8F6B   D0 18      BNE &8F85
     8F6D   A2 02      LDX #&02
.L9203
     8F6F   BD 34 C2   LDA &C234,X
     8F72   DD 1C C3   CMP &C31C,X
     8F75   D0 0E      BNE &8F85
     8F77   CA         DEX
     8F78   10 F5      BPL &8F6F
     8F7A   A9 02      LDA #&02
     8F7C   8D 1C C3   STA &C31C
     8F7F   9C 1D C3   STZ &C31D
     8F82   9C 1E C3   STZ &C31E
.L921B
     8F85   20 E3 9C   JSR &9CE3
     8F88   30 03      BMI &8F8D
     8F8A   20 65 8A   JSR &8A65
.L9224
     8F8D   A0 1A      LDY #&1A
     8F8F   A2 00      LDX #&00
.L9228
     8F91   B1 B6      LDA (&B6),Y
     8F93   81 B6      STA (&B6,X)
     8F95   E6 B6      INC &B6
     8F97   D0 02      BNE &8F9B
     8F99   E6 B7      INC &B7
.L9232
     8F9B   A5 B6      LDA &B6
     8F9D   C9 BB      CMP #&BB
     8F9F   D0 F0      BNE &8F91
     8FA1   A5 B7      LDA &B7
     8FA3   C9 C8      CMP #&C8
     8FA5   D0 EA      BNE &8F91
     8FA7   20 6F 83   JSR &836F
     8FAA   20 46 8D   JSR &8D46
     8FAD   4C 0A 88   JMP &880A
.L9247
     8FB0   86 B8      STX &B8
     8FB2   84 B9      STY &B9
     8FB4   A8         TAY
     8FB5   9C D5 C2   CLR &C2D5
     8FB8   0A         ASL A
     8FB9   AA         TAX
     8FBA   98         TYA
     8FBB   E8         INX
     8FBC   E8         INX
     8FBD   30 11      BMI &8FD0
     8FBF   E0 12      CPX #&12
     8FC1   B0 0D      BCS &8FD0
     8FC3   BD D2 8F   LDA &8FD2,X
     8FC6   48         PHA
     8FC7   BD D1 8F   LDA &8FD1,X
     8FCA   48         PHA
     8FCB   5A         PHY
     8FCC   20 25 B6   JSR &B625
     8FCF   68         PLA
.L9270
     8FD0   60         RTS
.L9271
     8FD1   07 8A
     8FD3   34 8D
     8FD5   1D 8E
     8FD7   1D 8E
     8FD9   1D 8E
     8FDB   98 8E
     8FDD   A0 8A
     8FDF   A6 8E
     8FE1   3C 8D
.L9283
     8FE3   AA         TAX
     8FE4   A9 9C      LDA #&9C
     8FE6   85 B7      STA &B7
     8FE8   BD 47 9B   LDA &9B47,X
     8FEB   85 B6      STA &B6
     8FED   A2 0C      LDX #&0C
.L928F
     8FEF   A0 00      LDY #&00
.L9291
     8FF1   20 9A B6   JSR &B69A
     8FF4   C9 20      CMP #&20
     8FF6   90 08      BCC &9000
     8FF8   20 2A 90   JSR &902A
     8FFB   C8         INY
     8FFC   CA         DEX
     8FFD   D0 F2      BNE &8FF1
     8FFF   60         RTS
.L92A1
     9000   20 73 9D   JSR &9D73
     9003   CA         DEX
     9004   D0 FA      BNE &9000
     9006   60         RTS
.L92A8
     9007   68         PLA
     9008   85 B6      STA &B6
     900A   68         PLA
     900B   85 B7      STA &B7
     900D   A0 01      LDY #&01
.L92B0
     900F   B1 B6      LDA (&B6),Y
     9011   30 06      BMI &9019
     9013   20 2A 90   JSR &902A
     9016   C8         INY
     9017   D0 F6      BNE &900F
.L92BA
     9019   29 7F      AND #&7F
     901B   20 2A 90   JSR &902A
     901E   98         TYA
     901F   18         CLC
     9020   65 B6      ADC &B6
     9022   A8         TAY
     9023   A9 00      LDA #&00
     9025   65 B7      ADC &B7
     9027   48         PHA
     9028   5A         PHY
     9029   60         RTS
.L92CB
     902A   48         PHA
     902B   8A         TXA
     902C   48         PHA
     902D   A5 B6      LDA &B6
     902F   48         PHA
     9030   A5 B7      LDA &B7
     9032   48         PHA
     9033   BA         TSX
     9034   BD 04 01   LDA &0104,X
     9037   20 78 9D   JSR &9D78
     903A   68         PLA
     903B   85 B7      STA &B7
     903D   68         PLA
     903E   85 B6      STA &B6
     9040   68         PLA
     9041   AA         TAX
     9042   68         PLA
     9043   60         RTS
.L92E5
     9044   A2 0A      LDX #&0A
     9046   20 EF 8F   JSR &8FEF
     9049   20 73 9D   JSR &9D73
     904C   A0 04      LDY #&04
     904E   A2 03      LDX #&03
.L92F1
     9050   B1 B6      LDA (&B6),Y
     9052   2A         ROL A
     9053   90 07      BCC &905C
     9055   B9 7B 90   LDA &907B,Y
     9058   20 78 9D   JSR &9D78
     905B   CA         DEX
.L92FD
     905C   88         DEY
     905D   10 F1      BPL &9050
.L9300
     905F   CA         DEX
     9060   30 05      BMI &9067
     9062   20 73 9D   JSR &9D73
     9065   80 F8      BRA &905F
.L9309
     9067   A9 28      LDA #&28
     9069   20 78 9D   JSR &9D78
     906C   A0 19      LDY #&19
     906E   B1 B6      LDA (&B6),Y
     9070   20 80 90   JSR &9080
     9073   A9 29      LDA #&29
     9075   20 78 9D   JSR &9D78
     9078   4C 73 9D   JMP &9D73
.L931D
     907B   52 57 4C ...
.L9322
     9080   48         PHA
     9081   20 ED 88   JSR &88ED
     9084   20 88 90   JSR &9088
     9087   68         PLA
.L932B
     9088   20 F0 82   JSR &82F0
     908B   4C 78 9D   JMP &9D78
.L9331
     908E   20 03 A4   JSR &A403
     9091   A9 D9      LDA #&D9
     9093   85 B6      STA &B6
     9095   A9 C8      LDA #&C8
     9097   85 B7      STA &B7
     9099   A2 13      LDX #&13
     909B   20 EF 8F   JSR &8FEF
     909E   20 07 90   JSR &9007
     90A1   20
     90A2   A8
     90A3   AD FA C8   LDA &C8FA
     90A6   20 80 90   JSR &9080
     90A9   20 07 90   JSR &9007
     90AC   29 
     90AD   0D
     90AE   44 72 69 ...
     90B3   BA
     90B4   AD 17 C3   LDA &C317
     90B7   0A         ASL A
     90B8   2A         ROL A
     90B9   2A         ROL A
     90BA   2A         ROL A
     90BB   69 30      ADC #&30
     90BD   20 78 9D   JSR &9D78
     90C0   A9 3C      LDA #&3C
     90C2   85 B6      STA &B6
     90C4   A9 97      LDA #&97
     90C6   85 B7      STA &B7
     90C8   A2 0D      LDX #&0D
     90CA   20 EF 8F   JSR &8FEF
     90CD   20 07 90   JSR &9007
     90D0   4F 70 74 ...
     90D6   A0
     90D7   AD FD C1   LDA &C1FD
     90DA   20 80 90   JSR &9080
     90DD   20 07 90   JSR &9007
     90E0   20
     90E1   A8
     90E2   AE FD C1   LDX &C1FD
     90E5   BD 75 91   LDA &9175,X
     90E8   85 B6      STA &B6
     90EA   A9 91      LDA #&91
     90EC   85 B7      STA &B7
     90EE   A2 04      LDX #&04
     90F0   20 EF 8F   JSR &8FEF
     90F3   20 07 90   JSR &9007
     90F6   29 
     90F7   0D
     90F8   44 69 72 ...
     90FC   A0
     90FD   64 B6      STZ &B6
     90FF   A9 C3      LDA #&C3
     9101   85 B7      STA &B7
     9103   A2 0A      LDX #&0A
     9105   20 EF 8F   JSR &8FEF
     9108   20 07 90   JSR &9007
     910B   20 20 20 ...
     9114   A0
     9115   A9 0A      LDA #&0A
     9117   85 B6      STA &B6
     9119   A9 C3      LDA #&C3
     911B   85 B7      STA &B7
     911D   A2 0A      LDX #&0A
     911F   20 EF 8F   JSR &8FEF
     9122   20 07 90   JSR &9007
     9125   0D
     9126   8D
.L93CC
     9127   4C 9F B6   JMP &B69F
.L93D5
     912A   20 1A A2   JSR &A21A
     912D   20 C1 91   JSR &91C1
.L93DB
     9130   20 8E 90   JSR &908E
     9133   A9 04      LDA #&04
     9135   8D 2B C2   STA &C22B
.L93E3
     9138   20 B8 B1   JSR &B1B8
     913B   F0 1E      BEQ &915B
     913D   20 44 90   JSR &9044
     9140   CE 2B C2   DEC &C22B
     9143   D0 0A      BNE &914F
     9145   A9 04      LDA #&04
     9147   8D 2B C2   STA &C22B
     914A   20 76 9D   JSR &9D76
     914D   80 03      BRA &9152
.L93FC
     914F   20 73 9D   JSR &9D73
.L93FF
     9152   20 CC B5   JSR &B5CC
     9155   90 E1      BCC &9138
     9157   E6 B7      INC &B7
     9159   B0 DD      BCS &9138
.L940C
     915B   AD 2B C2   LDA &C22B
     915E   C9 04      CMP #&04
     9160   F0 10      BEQ &9172
     9162   A9 86      LDA #&86
     9164   20 F4 FF   JSR &FFF4
     9167   8A         TXA
     9168   D0 05      BNE &916F
     916A   A9 0B      LDA #&0B
     916C   20 78 9D   JSR &9D78
.L9420
     916F   20 76 9D   JSR &9D76
.L9423
     9172   4C 0D 88   JMP &880D
.L9426
     9175   79
     9176   7D
     9177   81
     9178   85
.L942A
     9179   4F 66 66 ...
.L942E
     917D   4C 6F 61 ...
.L9432
     9181   52 75 6E ...
.L9436
     9185   45 78 65 ...
.L943A
     9189   20 C1 91   JSR &91C1
.L943D
     918C   20 8E 90   JSR &908E
.L9440
     918F   20 B8 B1   JSR &B1B8
     9192   F0 DE      BEQ &9172
     9194   20 44 92   JSR &9244
     9197   20 CC B5   JSR &B5CC
     919A   90 F3      BCC &918F
     919C   E6 B7      INC &B7
     919E   80 EF      BRA &918F
.L9456
     91A0   20 8C 94   JSR &948C
     91A3   29 7F      AND #&7F
     91A5   C9 5E      CMP #&5E
     91A7   D0 0A      BNE &91B3
     91A9   A9 C0      LDA #&C0
     91AB   85 B6      STA &B6
     91AD   A9 C8      LDA #&C8
     91AF   85 B7      STA &B7
     91B1   D0 0C      BNE &91BF
.L946A
     91B3   C9 40      CMP #&40
     91B5   D0 09      BNE &91C0
     91B7   A9 FE      LDA #&FE
     91B9   85 B6      STA &B6
     91BB   A9 C2      LDA #&C2
     91BD   85 B7      STA &B7
.L9476
     91BF   98         TYA
.RTS9
.L9477
     91C0   60         RTS
.L9478
     91C1   20 8C 94   JSR &948C
     91C4   C9 21      CMP #&21
     91C6   B0 06      BCS &91CE
     91C8   AE 17 C3   LDX &C317
     91CB   E8         INX
     91CC   D0 F2      BNE &91C0
.L9486
     91CE   20 D0 86   JSR &86D0
     91D1   D0 0D      BNE &91E0
.L948B
     91D3   20 4F 93   JSR &934F
     91D6   30 0D      BMI &91E5
     91D8   20 AD 87   JSR &87AD
     91DB   F0 F6      BEQ &91D3
.L9496
     91DD   4C DB 89   JMP &89DB
.L9499
     91E0   20 A0 91   JSR &91A0
     91E3   D0 F8      BNE &91DD
.L949E
     91E5   AC 2E C2   LDY &C22E
     91E8   C8         INY
     91E9   D0 07      BNE &91F2
     91EB   A0 02      LDY #&02
.L94A6
     91ED   20 B4 B5   JSR &B5B4
     91F0   10 FB      BPL &91ED
.L94AF
     91F2   A2 0A      LDX #&0A
.L94B1
     91F4   20 87 B6   JSR &B687
     91F7   10 FB      BPL &91F4
     91F9   A2 02      LDX #&02
     91FB   A0 16      LDY #&16
.L94BE
     91FD   20 8F B6   JSR &B68F
     9200   10 FB      BPL &91FD
     9202   A5 B7      LDA &B7
     9204   C9 94      CMP #&94
     9206   F0 B8      BEQ &91C0
     9208   4C 6B 81   JMP &816B
.L94D3
     920B   A4
     920C   0D
     920D   8D
     920E   8D
     920F   0D
     9210   0D
     9211   0D
     9212   0D
     9213   0D
     9214   0D
     9215   00
     9216   00
     9217   00
     9218   00
     9219   00
     921A   00
     921B   00
     921C   00
     921D   00
     921E   05
     921F   00
     9220   00
     9221   02
     9222   00
     9223   00
     9224   00
     9225   00
.L94EE
     9226   20 84 8D   JSR &8D84
     9229   F0 03      BEQ &922E
     922B   4C CD 89   JMP &89CD
.L94F6
     922E   20 44 92   JSR &9244
     9231   20 AD 87   JSR &87AD
     9234   F0 F8      BEQ &922E
     9236   4C 0D 88   JMP &880D
.lda_b4_y_and_7f
     9239   B1 B4      LDA (&B4),Y
     923B   29 7F      AND #&7F
.RTS8
     923D   60         RTS
.L9501
     923E   A5 CD      LDA &CD
     9240   29 04      AND #&04
     9242   F0 F9      BEQ &923D
.L9508
     9244   20 44 90   JSR &9044
     9247   20 78 9D   JSR &9D78
     924A   A2 0A      LDX #&0A
     924C   A0 0D      LDY #&0D
.L9522
     924E   E0 16      CPX #&16
     9250   F0 05      BEQ &9257
     9252   B1 B6      LDA (&B6),Y
     9254   20 80 90   JSR &9080
.L952B
     9257   8A         TXA
     9258   29 03      AND #&03
     925A   C9 01      CMP #&01
     925C   D0 0B      BNE &9269
     925E   20 73 9D   JSR &9D73
     9261   20 73 9D   JSR &9D73
     9264   8A         TXA
     9265   18         CLC
     9266   69 05      ADC #&05
     9268   A8         TAY
.L953D
     9269   88         DEY
     926A   E8         INX
     926B   E0 1A      CPX #&1A
     926D   D0 DF      BNE &924E
.L9543
     926F   4C 76 9D   JMP &9D76
.L9546
     9272   20 CE 91   JSR &91CE
     9275   A0 09      LDY #&09
.L954B
     9277   B9 CC C8   LDA &C8CC,Y
     927A   99 00 C3   STA &C300,Y
     927D   88         DEY
     927E   10 F7      BPL &9277
     9280   AD 2F C2   LDA &C22F
     9283   C9 FF      CMP #&FF
     9285   D0 03      BNE &928A
     9287   AD 17 C3   LDA &C317
.L955E
     928A   8D 1F C3   STA &C31F
     928D   A0 02      LDY #&02
.L9563
     928F   B9 2C C2   LDA &C22C,Y
     9292   99 1C C3   STA &C31C,Y
     9295   88         DEY
     9296   10 F7      BPL &928F
     9298   20 64 B6   JSR &B664
     929B   4C 0D 88   JMP &880D
.L9577
     929E   A9 FF      LDA #&FF
     92A0   A0 00      LDY #&00
     92A2   20 4C A6   JSR &A64C
     92A5   A2 0F      LDX #&0F
.L9580
     92A7   BD 3F 93   LDA &933F,X
     92AA   9D 42 C2   STA &C242,X
     92AD   CA         DEX
     92AE   10 F7      BPL &92A7
     92B0   20 57 B6   JSR &B657
     92B3   20 D4 8B   JSR &8BD4
     92B6   A0 09      LDY #&09
     92B8   20 C8 9C   JSR &9CC8
     92BB   F0 13      BEQ &92D0
.L95AB
     92BD   20 FB 81   JSR &81FB
     92C0   C4
     92C1   41 6C 72 ...
     92CF   00
.L95BE
     92D0   20 12 9D   JSR &9D12
     92D3   F0 04      BEQ &92D9
     92D5   C9 21      CMP #&21
     92D7   B0 02      BCS &92DB
.L95CA
     92D9   A9 0D      LDA #&0D
.L95CC
     92DB   91 B6      STA (&B6),Y
     92DD   88         DEY
     92DE   10 F0      BPL &92D0
     92E0   20 13 8D   JSR &8D13
     92E3   A0 03      LDY #&03
.L95D6
     92E5   20 C5 B5   JSR &B5C5
     92E8   88         DEY
     92E9   C0 01      CPY #&01
     92EB   D0 F8      BNE &92E5
     92ED   88         DEY
     92EE   20 C5 B5   JSR &B5C5
     92F1   A9 00      LDA #&00
     92F3   AA         TAX
     92F4   A8         TAY
.L95EC
     92F5   9D 00 CA   STA &CA00,X
     92F8   9D 00 C9   STA &C900,X
     92FB   9D 00 CB   STA &CB00,X
     92FE   9D 00 CC   STA &CC00,X
     9301   9D 00 CD   STA &CD00,X
     9304   E8         INX
     9305   D0 EE      BNE &92F5
     9307   A2 04      LDX #&04
.L9600
     9309   BD 6A 83   LDA &836A,X
     930C   9D 00 C9   STA &C900,X
     930F   9D FA CD   STA &CDFA,X
     9312   BD 14 C3   LDA &C314,X
     9315   9D D6 CD   STA &CDD6,X
     9318   CA         DEX
     9319   10 EE      BPL &9309
     931B   A2 00      LDX #&00
.L9614
     931D   20 12 9D   JSR &9D12
     9320   F0 04      BEQ &9326
     9322   C9 21      CMP #&21
     9324   B0 02      BCS &9328
.L9620
     9326   A9 0D      LDA #&0D
.L9622
     9328   9D D9 CD   STA &CDD9,X
     932B   9D CC CD   STA &CDCC,X
     932E   C8         INY
     932F   E8         INX
     9330   E0 0A      CPX #&0A
     9332   D0 E9      BNE &931D
     9334   A9 0D      LDA #&0D
     9336   9D D9 CD   STA &CDD9,X
     9339   20 73 88   JSR &8873
     933C   4C 40 8D   JMP &8D40
.L9639
     933F   00
     9340   00
     9341   00
     9342   00
     9343   00
     9344   00
     9345   00
     9346   00
     9347   00
     9348   C9
     9349   FF
     934A   FF
     934B   00
     934C   CE
     934D   FF
     934E   FF
.ldy_3_lda_b6_y
     934F   A0 03      LDY #&03
     9351   B1 B6      LDA (&B6),Y
.RTS10
     9353   60         RTS
.L9649
     9354   AD 2F C2   LDA &C22F
     9357   CD 17 C3   CMP &C317
     935A   F0 03      BEQ &935F
     935C   1A         INC A
     935D   D0 17      BNE &9376
.L9654
     935F   A0 02      LDY #&02
.L9656
     9361   B9 A2 C2   LDA &C2A2,Y
     9364   D9 2C C2   CMP &C22C,Y
     9367   D0 0D      BNE &9376
     9369   88         DEY
     936A   10 F5      BPL &9361
     936C   A0 02      LDY #&02
.L9663
     936E   B9 A8 C2   LDA &C2A8,Y
     9371   20 B7 B5   JSR &B5B7
     9374   10 F8      BPL &936E
.L966C
     9376   AD 1B C3   LDA &C31B
     9379   CD 17 C3   CMP &C317
     937C   D0 18      BNE &9396
     937E   A0 02      LDY #&02
.L9676
     9380   B9 A2 C2   LDA &C2A2,Y
     9383   D9 18 C3   CMP &C318,Y
     9386   D0 0E      BNE &9396
     9388   88         DEY
     9389   10 F5      BPL &9380
     938B   A0 02      LDY #&02
.L9683
     938D   B9 A8 C2   LDA &C2A8,Y
     9390   99 18 C3   STA &C318,Y
     9393   88         DEY
     9394   10 F7      BPL &938D
.L968C
     9396   AD 1F C3   LDA &C31F
     9399   CD 17 C3   CMP &C317
     939C   D0 18      BNE &93B6
     939E   A0 02      LDY #&02
.L9696
     93A0   B9 A2 C2   LDA &C2A2,Y
     93A3   D9 1C C3   CMP &C31C,Y
     93A6   D0 0E      BNE &93B6
     93A8   88         DEY
     93A9   10 F5      BPL &93A0
     93AB   A0 02      LDY #&02
.L96A3
     93AD   B9 A8 C2   LDA &C2A8,Y
     93B0   99 1C C3   STA &C31C,Y
     93B3   88         DEY
     93B4   10 F7      BPL &93AD
.L96AC
     93B6   A5 CD      LDA &CD
     93B8   29 08      AND #&08
     93BA   D0 06      BNE &93C2
     93BC   20 46 8D   JSR &8D46
     93BF   20 64 A6   JSR &A664
.L96B8
     93C2   AD A7 C2   LDA &C2A7
     93C5   0D A6 C2   ORA &C2A6
     93C8   0D A5 C2   ORA &C2A5
     93CB   F0 86      BEQ &9353
.L96C4
     93CD   AD A7 C2   LDA &C2A7
     93D0   0D A6 C2   ORA &C2A6
     93D3   D0 08      BNE &93DD
     93D5   AD A5 C2   LDA &C2A5
     93D8   CD 61 C2   CMP &C261
     93DB   90 03      BCC &93E0
.L96D4
     93DD   AD 61 C2   LDA &C261
.L96D7
     93E0   8D 1E C2   STA &C21E
     93E3   AD 60 C2   LDA &C260
     93E6   8D 17 C2   STA &C217
     93E9   A2 00      LDX #&00
     93EB   8E 16 C2   STX &C216
     93EE   CA         DEX
     93EF   8E 18 C2   STX &C218
     93F2   8E 19 C2   STX &C219
.L96EC
     93F5   38         SEC
     93F6   AD A5 C2   LDA &C2A5
     93F9   ED 61 C2   SBC &C261
     93FC   8D A5 C2   STA &C2A5
     93FF   AD A6 C2   LDA &C2A6
     9402   E9 00      SBC #&00
     9404   8D A6 C2   STA &C2A6
     9407   AD A7 C2   LDA &C2A7
     940A   E9 00      SBC #&00
     940C   8D A7 C2   STA &C2A7
     940F   B0 09      BCS &941A
     9411   AD A5 C2   LDA &C2A5
     9414   6D 61 C2   ADC &C261
     9417   8D 1E C2   STA &C21E
.L9711
     941A   A9 08      LDA #&08
     941C   8D 1A C2   STA &C21A
     941F   AD A2 C2   LDA &C2A2
     9422   8D 1D C2   STA &C21D
     9425   AD A3 C2   LDA &C2A3
     9428   8D 1C C2   STA &C21C
     942B   AD A4 C2   LDA &C2A4
     942E   8D 1B C2   STA &C21B
     9431   20 6B 81   JSR &816B
     9434   A9 0A      LDA #&0A
     9436   8D 1A C2   STA &C21A
     9439   AD A8 C2   LDA &C2A8
     943C   8D 1D C2   STA &C21D
     943F   AD A9 C2   LDA &C2A9
     9442   8D 1C C2   STA &C21C
     9445   AD AA C2   LDA &C2AA
     9448   8D 1B C2   STA &C21B
     944B   20 6B 81   JSR &816B
     944E   AD A5 C2   LDA &C2A5
     9451   0D A6 C2   ORA &C2A6
     9454   0D A7 C2   ORA &C2A7
     9457   F0 38      BEQ &9491
     9459   AD 1E C2   LDA &C21E
     945C   CD 61 C2   CMP &C261
     945F   D0 30      BNE &9491
     9461   18         CLC
     9462   AD A2 C2   LDA &C2A2
     9465   6D 61 C2   ADC &C261
     9468   8D A2 C2   STA &C2A2
     946B   90 08      BCC &9475
     946D   EE A3 C2   INC &C2A3
     9470   D0 03      BNE &9475
     9472   EE A4 C2   INC &C2A4
.L976C
     9475   18         CLC
     9476   AD A8 C2   LDA &C2A8
     9479   6D 61 C2   ADC &C261
     947C   8D A8 C2   STA &C2A8
     947F   90 08      BCC &9489
     9481   EE A9 C2   INC &C2A9
     9484   D0 03      BNE &9489
     9486   EE AA C2   INC &C2AA
.L9780
     9489   4C F5 93   JMP &93F5
.ldy_0_lda_b4_y
     948C   A0 00      LDY #&00
     948E   B1 B4      LDA (&B4),Y
.RTS11
     9490   60         RTS
.L9783
     9491   A5 CD      LDA &CD
     9493   29 08      AND #&08
     9495   D0 F9      BNE &9490
.L978A
     9497   A9 C4      LDA #&C4
     9499   8D 17 C2   STA &C217
     949C   A9 08      LDA #&08
     949E   20 0F B6   JSR &B60F
     94A1   A9 05      LDA #&05
     94A3   8D 1E C2   STA &C21E
     94A6   4C 6F 81   JMP &816F
.L97AE
     94A9   9C AB C2   STZ &C2AB
     94AC   9C AC C2   STZ &C2AC
     94AF   9C AD C2   STZ &C2AD
.L97B9
     94B2   A9 FF      LDA #&FF
     94B4   8D A2 C2   STA &C2A2
     94B7   8D A3 C2   STA &C2A3
     94BA   8D A4 C2   STA &C2A4
     94BD   20 27 91   JSR &9127
.L97C7
     94C0   20 B8 B1   JSR &B1B8
     94C3   D0 0F      BNE &94D4
     94C5   AD A2 C2   LDA &C2A2
     94C8   2D A3 C2   AND &C2A3
     94CB   2D A4 C2   AND &C2A4
     94CE   1A         INC A
     94CF   D0 41      BNE &9512
     94D1   4C 46 8D   JMP &8D46
.L97DC
     94D4   A0 16      LDY #&16
     94D6   A2 02      LDX #&02
     94D8   38         SEC
.L97E1
     94D9   B9 95 C2   LDA &C295,Y
     94DC   F1 B6      SBC (&B6),Y
     94DE   C8         INY
     94DF   CA         DEX
     94E0   10 F7      BPL &94D9
     94E2   B0 25      BCS &9509
     94E4   A0 16      LDY #&16
     94E6   A2 02      LDX #&02
     94E8   38         SEC
.L97F1
     94E9   B9 8C C2   LDA &C28C,Y
     94EC   F1 B6      SBC (&B6),Y
     94EE   C8         INY
     94EF   CA         DEX
     94F0   10 F7      BPL &94E9
     94F2   90 15      BCC &9509
     94F4   A0 16      LDY #&16
     94F6   A2 02      LDX #&02
.L9800
     94F8   B1 B6      LDA (&B6),Y
     94FA   99 8C C2   STA &C28C,Y
     94FD   C8         INY
     94FE   CA         DEX
     94FF   10 F7      BPL &94F8
     9501   A5 B6      LDA &B6
     9503   85 B4      STA &B4
     9505   A5 B7      LDA &B7
     9507   85 B5      STA &B5
.L9811
     9509   20 CC B5   JSR &B5CC
     950C   90 B2      BCC &94C0
     950E   E6 B7      INC &B7
     9510   B0 AE      BCS &94C0
.L981E
     9512   A5 B4      LDA &B4
     9514   85 B6      STA &B6
     9516   A5 B5      LDA &B5
     9518   85 B7      STA &B7
     951A   A0 02      LDY #&02
.L9828
     951C   B9 A2 C2   LDA &C2A2,Y
     951F   99 AB C2   STA &C2AB,Y
     9522   88         DEY
     9523   10 F7      BPL &951C
     9525   A2 00      LDX #&00
     9527   86 B2      STX &B2
.L9835
     9529   EC FE C1   CPX &C1FE
     952C   B0 84      BCS &94B2
.L983D
     952E   E8         INX
     952F   E8         INX
     9530   E8         INX
     9531   86 B2      STX &B2
     9533   A0 02      LDY #&02
.L9844
     9535   CA         DEX
     9536   BD 00 C0   LDA &C000,X
     9539   D9 A2 C2   CMP &C2A2,Y
     953C   B0 04      BCS &9542
     953E   A6 B2      LDX &B2
     9540   80 E7      BRA &9529
.L9851
     9542   D0 03      BNE &9547
     9544   88         DEY
     9545   10 EE      BPL &9535
.L9856
     9547   A6 B2      LDX &B2
     9549   E0 06      CPX #&06
     954B   90 12      BCC &955F
     954D   A0 00      LDY #&00
     954F   18         CLC
     9550   08         PHP
.L9860
     9551   28         PLP
     9552   BD FA BF   LDA &BFFA,X
     9555   7D FA C0   ADC &C0FA,X
     9558   08         PHP
     9559   D9 A2 C2   CMP &C2A2,Y
     955C   F0 04      BEQ &9562
     955E   28         PLP
.L986E
     955F   4C B2 94   JMP &94B2
.L9871
     9562   20 82 B6   JSR &B682
     9565   D0 EA      BNE &9551
     9567   28         PLP
     9568   A2 02      LDX #&02
     956A   20 F5 9C   JSR &9CF5
.L9880
     956D   C8         INY
     956E   B1 B6      LDA (&B6),Y
     9570   69 00      ADC #&00
     9572   99 92 C2   STA &C292,Y
     9575   99 2A C2   STA &C22A,Y
     9578   99 24 C2   STA &C224,Y
     957B   BD A2 C2   LDA &C2A2,X
     957E   9D 34 C2   STA &C234,X
     9581   CA         DEX
     9582   10 E9      BPL &956D
     9584   20 6F 83   JSR &836F
     9587   20 C5 84   JSR &84C5
     958A   A2 02      LDX #&02
     958C   A0 18      LDY #&18
.L98A1
     958E   BD 3A C2   LDA &C23A,X
     9591   91 B6      STA (&B6),Y
     9593   9D A8 C2   STA &C2A8,X
     9596   88         DEY
     9597   CA         DEX
     9598   10 F4      BPL &958E
     959A   20 54 93   JSR &9354
     959D   4C A9 94   JMP &94A9
.L98B3
     95A0   64 C0      STZ &C0
     95A2   9C 53 C2   STZ &C253
     95A5   9C 54 C2   STZ &C254
     95A8   A9 02      LDA #&02
     95AA   8D 52 C2   STA &C252
     95AD   A9 CD      LDA #&CD
     95AF   85 C1      STA &C1
     95B1   A9 26      LDA #&26
     95B3   85 B4      STA &B4
     95B5   A9 96      LDA #&96
     95B7   85 B5      STA &B5
.L98CE
     95B9   20 CE 91   JSR &91CE
     95BC   A0 02      LDY #&02
.L98D3
     95BE   B9 52 C2   LDA &C252,Y
     95C1   99 D6 C8   STA &C8D6,Y
     95C4   88         DEY
     95C5   10 F7      BPL &95BE
     95C7   20 A9 94   JSR &94A9
     95CA   20 27 91   JSR &9127
.L98E2
     95CD   20 B8 B1   JSR &B1B8
     95D0   F0 2A      BEQ &95FC
     95D2   20 4F 93   JSR &934F
     95D5   10 42      BPL &9619
     95D7   A5 C0      LDA &C0
     95D9   C9 FE      CMP #&FE
     95DB   F0 1F      BEQ &95FC
     95DD   A0 00      LDY #&00
     95DF   A5 B6      LDA &B6
     95E1   85 B4      STA &B4
     95E3   91 C0      STA (&C0),Y
     95E5   E6 C0      INC &C0
     95E7   A5 B7      LDA &B7
     95E9   85 B5      STA &B5
     95EB   91 C0      STA (&C0),Y
     95ED   E6 C0      INC &C0
     95EF   A2 02      LDX #&02
.L9908
     95F1   BD 14 C3   LDA &C314,X
     95F4   9D 52 C2   STA &C252,X
     95F7   CA         DEX
     95F8   10 F7      BPL &95F1
     95FA   30 BD      BMI &95B9
.L9913
     95FC   A5 C0      LDA &C0
     95FE   F0 22      BEQ &9622
     9600   A9 25      LDA #&25
     9602   85 B4      STA &B4
     9604   A9 96      LDA #&96
     9606   85 B5      STA &B5
     9608   20 CE 91   JSR &91CE
     960B   A0 00      LDY #&00
     960D   C6 C0      DEC &C0
     960F   B1 C0      LDA (&C0),Y
     9611   85 B7      STA &B7
     9613   C6 C0      DEC &C0
     9615   B1 C0      LDA (&C0),Y
     9617   85 B6      STA &B6
.L9930
     9619   20 CC B5   JSR &B5CC
     961C   90 AF      BCC &95CD
     961E   E6 B7      INC &B7
     9620   80 AB      BRA &95CD
.L993D
     9622   4C 0D 88   JMP &880D
.L9940
     9625   5E 
.L9941
     9626   0D
.L9942
     9627   20 84 8D   JSR &8D84
     962A   F0 0E      BEQ &963A
     962C   4C CD 89   JMP &89CD
.L994A
     962F   A0 02      LDY #&02
.L994C
     9631   20 9A B6   JSR &B69A
     9634   91 B6      STA (&B6),Y
     9636   88         DEY
     9637   10 F8      BPL &9631
     9639   60         RTS
.L9956
     963A   20 2F 96   JSR &962F
     963D   20 E3 9C   JSR &9CE3
     9640   30 0B      BMI &964D
     9642   88         DEY
     9643   B1 B6      LDA (&B6),Y
     9645   29 80      AND #&80
     9647   A0 00      LDY #&00
     9649   11 B6      ORA (&B6),Y
     964B   91 B6      STA (&B6),Y
.L996A
     964D   8D 2B C2   STA &C22B
     9650   A0 00      LDY #&00
.L996F
     9652   20 A8 B6   JSR &B6A8
     9655   90 47      BCC &969E
     9657   F0 07      BEQ &9660
     9659   C9 22      CMP #&22
     965B   F0 03      BEQ &9660
     965D   C8         INY
     965E   D0 F2      BNE &9652
.L997E
     9660   20 A8 B6   JSR &B6A8
     9663   90 39      BCC &969E
     9665   F0 04      BEQ &966B
     9667   C9 22      CMP #&22
     9669   D0 03      BNE &966E
.L998A
     966B   C8         INY
     966C   D0 F2      BNE &9660
.L998D
     966E   B1 B4      LDA (&B4),Y
     9670   29 DF      AND #&DF
     9672   2C 2B C2   BIT &C22B
     9675   30 11      BMI &9688
     9677   C9 45      CMP #&45
     9679   D0 0D      BNE &9688
     967B   20 2F 96   JSR &962F
     967E   A0 04      LDY #&04
     9680   20 C5 B5   JSR &B5C5
     9683   8D 2B C2   STA &C22B
     9686   30 13      BMI &969B
.L99AA
     9688   A2 02      LDX #&02
.L99AC
     968A   DD 7B 90   CMP &907B,X
     968D   F0 1D      BEQ &96AC
     968F   2C 2B C2   BIT &C22B
     9692   30 03      BMI &9697
     9694   CA         DEX
     9695   10 F3      BPL &968A
.L99B9
     9697   C9 21      CMP #&21
     9699   90 03      BCC &969E
.L99BD
     969B   C8         INY
     969C   D0 D0      BNE &966E
.L99C0
     969E   20 3E 92   JSR &923E
     96A1   20 AD 87   JSR &87AD
     96A4   F0 94      BEQ &963A
     96A6   20 46 8D   JSR &8D46
     96A9   4C 0D 88   JMP &880D
.L99CE
     96AC   5A         PHY
     96AD   8A         TXA
     96AE   A8         TAY
     96AF   20 C5 B5   JSR &B5C5
     96B2   7A         PLY
     96B3   80 E6      BRA &969B
.L99DA
     96B5   20 76 9D   JSR &9D76
     96B8   20 FB 81   JSR &81FB
     96BB   92
     96BC   41 62 6F ...
     96C3   00
.L99E9
     96C4   A5 B4      LDA &B4
     96C6   48         PHA
     96C7   A5 B5      LDA &B5
     96C9   48         PHA
     96CA   20 BC B5   JSR &B5BC
     96CD   20 26 92   JSR &9226
     96D0   68         PLA
     96D1   85 B5      STA &B5
     96D3   68         PLA
     96D4   85 B4      STA &B4
     96D6   20 07 90   JSR &9007
     96D9   44 65 73 ...
     96E1   A0
     96E2   A2 03      LDX #&03
.L9A0F
     96E4   20 E0 FF   JSR &FFE0
     96E7   C9 20      CMP #&20
     96E9   90 03      BCC &96EE
     96EB   20 78 9D   JSR &9D78
.L9A19
     96EE   29 DF      AND #&DF
     96F0   DD 66 83   CMP &8366,X
     96F3   D0 C0      BNE &96B5
     96F5   CA         DEX
     96F6   10 EC      BPL &96E4
     96F8   20 76 9D   JSR &9D76
     96FB   9C D5 C2   STZ &C2D5
.L9A29
     96FE   A5 B4      LDA &B4
     9700   48         PHA
     9701   A5 B5      LDA &B5
     9703   48         PHA
     9704   24 FF      BIT &FF
     9706   10 03      BPL &970B
     9708   4C 83 81   JMP &8183
.L9A36
     970B   20 84 8D   JSR &8D84
     970E   D0 0B      BNE &971B
     9710   20 B1 8E   JSR &8EB1
     9713   68         PLA
     9714   85 B5      STA &B5
     9716   68         PLA
     9717   85 B4      STA &B4
     9719   80 E3      BRA &96FE
.L9A47
     971B   68         PLA
     971C   68         PLA
     971D   4C 0D 88   JMP &880D
.L9A4C
     9720   6C 1E 02   JMP (&021E)
.L9A4F
     9723   24
     9724   20
     9725   20
     9726   20
     9727   20
     9728   20
     9729   20
     972A   20
     972B   20
     972C   20
     972D   24
     972E   20
     972F   20
     9730   20
     9731   20
     9732   20
     9733   20
     9734   20
     9735   20
     9736   20
     9737   02
     9738   00
     9739   00
     973A   00
     973B   02
.L9A68
     973C   00
     973D   00
     973E   00
     973F   02
.L9A7F
     9740   A9 A1      LDA #&A1
     9742   A2 0B      LDX #&0B
     9744   20 F4 FF   JSR &FFF4
     9747   98         TYA
     9748   60         RTS
.L9A88
     9749   A9 FD      LDA #&FD
     974B   20 52 83   JSR &8352
     974E   8A         TXA
     974F   60         RTS
.L9A8F
     9750   53
     9751   55
     9752   5D
.L9A92
     9753   4C 2E 
.L9A94
     9755   24 2E 21 ...
     975C   0D
.L9A9C
     975D   45 2E 2D ...
     976C   0D
.L9AAC
     976D   95
     976E   95
     976F   BF
     9770   0F
     9771   D6
     9772   E5
     9773   95
     9774   95
     9775   11
     9776   BF
.L9AB6
     9777   97
     9778   97
     9779   97
     977A   98
     977B   99
     977C   A7
     977D   97
     977E   97
     977F   9A
     9780   9A
.L9AC0
     9781   8C
     9782   93
     9783   95
     9784   9B
     9785   9D
     9786   B8
     9787   95
.L9AC7
     9788   99
     9789   99
     978A   97
     978B   99
     978C   99
     978D   99
     978E   97
.L9ACE
     978F   3C F0 0D   BIT &0DF0,X
     9792   10 03      BPL &9797
     9794   70 03      BVS &9799
.L9AD5
     9796   60         RTS
.L9AD6
     9797   70 FD      BVS &9796
.L9AD8
     9799   C9 12      CMP #&12
     979B   F0 6B      BEQ &9808
     979D   C9 0A      CMP #&0A
     979F   B0 0D      BCS &97AE
     97A1   AA         TAX
     97A2   BD 77 97   LDA &9777,X
     97A5   48         PHA
     97A6   BD 6D 97   LDA &976D,X
.L9AE8
     97A9   48         PHA
     97AA   8A         TXA
     97AB   A6 F4      LDX &F4
     97AD   60         RTS
.L9AED
     97AE   C9 21      CMP #&21
     97B0   90 E4      BCC &9796
     97B2   C9 28      CMP #&28
     97B4   B0 E0      BCS &9796
     97B6   AA         TAX
     97B7   BD 67 97   LDA &9767,X
     97BA   48         PHA
     97BB   BD 60 97   LDA &9760,X
     97BE   80 E9      BRA &97A9
.L9AFF
     97C0   BD F0 0D   LDA &0DF0,X
     97C3   C9 DC      CMP #&DC
     97C5   90 04      BCC &97CB
     97C7   98         TYA
     97C8   9D F0 0D   STA &0DF0,X
.L9B0A
     97CB   5A         PHY
     97CC   20 6F 80   JSR &806F
     97CF   F0 26      BEQ &97F7
     97D1   20 33 A4   JSR &A433
     97D4   A8         TAY
.L9B14
     97D5   B9 23 97   LDA &9723,Y
     97D8   C0 1D      CPY #&1D
     97DA   90 02      BCC &97DE
     97DC   A9 00      LDA #&00
.L9B1D
     97DE   91 BA      STA (&BA),Y
     97E0   C8         INY
     97E1   D0 F2      BNE &97D5
     97E3   20 40 97   JSR &9740
     97E6   29 80      AND #&80
     97E8   A0 17      LDY #&17
     97EA   91 BA      STA (&BA),Y
     97EC   A0 1B      LDY #&1B
     97EE   91 BA      STA (&BA),Y
     97F0   A0 1F      LDY #&1F
     97F2   91 BA      STA (&BA),Y
.L9B38
     97F4   20 50 A4   JSR &A450
.L9B3B
     97F7   20 56 A4   JSR &A456
     97FA   7A         PLY
     97FB   A6 F4      LDX &F4
     97FD   3C F0 0D   BIT &0DF0,X
     9800   30 01      BMI &9803
     9802   C8         INY
.L9B47
     9803   A9 02      LDA #&02
.L9B49
     9805   60         RTS
.L9B4A
     9806   A0 08      LDY #&08
.L9B4C
     9808   C0 08      CPY #&08
     980A   D0 F9      BNE &9805
     980C   5A         PHY
     980D   5A         PHY
     980E   80 3C      BRA &984C
.L9B54
     9810   98         TYA
     9811   48         PHA
     9812   A9 7A      LDA #&7A
     9814   20 F4 FF   JSR &FFF4
     9817   E8         INX
     9818   F0 12      BEQ &982C
     981A   CA         DEX
     981B   E0 41      CPX #&41
     981D   F0 0D      BEQ &982C
     981F   E0 43      CPX #&43
     9821   F0 07      BEQ &982A
     9823   68         PLA
     9824   A8         TAY
     9825   A6 F4      LDX &F4
     9827   A9 03      LDA #&03
     9829   60         RTS
.L9B72
     982A   68         PLA
     982B   DA         PHX
.L9B74
     982C   58         CLI
     982D   DA         PHX
     982E   20 40 97   JSR &9740
     9831   0A         ASL A
     9832   10 09      BPL &983D
     9834   20 6F 80   JSR &806F
     9837   F0 04      BEQ &983D
     9839   68         PLA
     983A   A9 43      LDA #&43
     983C   48         PHA
.L9B85
     983D   20 07 90   JSR &9007
     9840   41 63 6F ...
     984A   0D
     984B   8D
.L9B94
     984C   A9 06      LDA #&06
     984E   20 20 97   JSR &9720
     9851   A9 10      LDA #&10
     9853   8D 00 C2   STA &C200
     9856   9C D7 C2   STZ &C2D7
     9859   9C EC C2   STZ &C2EC
     985C   20 FB B8   JSR &B8FB
     985F   20 40 97   JSR &9740
     9862   8D D8 C2   STA &C2D8
     9865   A0 0D      LDY #&0D
.L9BA9
     9867   B9 6A 99   LDA &996A,Y
     986A   99 12 02   STA &0212,Y
     986D   88         DEY
     986E   10 F7      BPL &9867
     9870   A9 A8      LDA #&A8
     9872   20 52 83   JSR &8352
     9875   86 B4      STX &B4
     9877   84 B5      STY &B5
     9879   A0 2F      LDY #&2F
     987B   A2 14      LDX #&14
.L9BBF
     987D   BD 78 99   LDA &9978,X
     9880   C9 FF      CMP #&FF
     9882   D0 02      BNE &9886
     9884   A5 F4      LDA &F4
.L9BC8
     9886   91 B4      STA (&B4),Y
     9888   88         DEY
     9889   CA         DEX
     988A   10 F1      BPL &987D
     988C   A9 8F      LDA #&8F
     988E   A2 0F      LDX #&0F
     9890   A0 FF      LDY #&FF
     9892   20 F4 FF   JSR &FFF4
     9895   A9 FF      LDA #&FF
     9897   8D E4 C2   STA &C2E4
     989A   20 56 A4   JSR &A456
     989D   9C 08 C2   STZ &C208
     98A0   9C 0C C2   STZ &C20C
     98A3   9C 10 C2   STZ &C210
     98A6   9C 14 C2   STZ &C214
     98A9   A9 01      LDA #&01
     98AB   8D 04 C2   STA &C204
     98AE   A0 FB      LDY #&FB
.L9BF0
     98B0   B1 BA      LDA (&BA),Y
     98B2   99 00 C3   STA &C300,Y
     98B5   88         DEY
     98B6   D0 F8      BNE &98B0
     98B8   B1 BA      LDA (&BA),Y
     98BA   99 00 C3   STA &C300,Y
     98BD   AD 20 C3   LDA &C320
     98C0   29 04      AND #&04
     98C2   85 CD      STA &CD
     98C4   20 C2 A4   JSR &A4C2
     98C7   A9 20      LDA #&20
     98C9   04 CD      TSB &CD
.L9C10
     98CB   68         PLA
     98CC   C9 43      CMP #&43
     98CE   D0 03      BNE &98D3
     98D0   20 28 83   JSR &8328
.L9C18
     98D3   A0 03      LDY #&03
.L9C1A
     98D5   20 B4 B5   JSR &B5B4
     98D8   10 FB      BPL &98D5
     98DA   20 0D 88   JSR &880D
     98DD   AE 17 C3   LDX &C317
     98E0   E8         INX
     98E1   F0 4E      BEQ &9931
     98E3   20 AB B0   JSR &B0AB
     98E6   AD 1B C3   LDA &C31B
     98E9   1A         INC A
     98EA   D0 42      BNE &992E
     98EC   20 34 9D   JSR &9D34
     98EF   F0 3D      BEQ &992E
     98F1   D0 04      BNE &98F7
     98F3   1B
     98F4   C3
     98F5   D0 37      BNE &992E
.L9C41
     98F7   A9 62      LDA #&62
     98F9   85 B4      STA &B4
     98FB   A9 99      LDA #&99
     98FD   85 B5      STA &B5
     98FF   20 84 8D   JSR &8D84
     9902   D0 2A      BNE &992E
.L9C4E
     9904   20 4F 93   JSR &934F
     9907   30 07      BMI &9910
     9909   20 AD 87   JSR &87AD
     990C   D0 20      BNE &992E
     990E   F0 F4      BEQ &9904
.L9C5B
     9910   A2 02      LDX #&02
     9912   A0 18      LDY #&18
.L9C5F
     9914   B1 B6      LDA (&B6),Y
     9916   9D 18 C3   STA &C318,X
     9919   88         DEY
     991A   CA         DEX
     991B   10 F7      BPL &9914
     991D   AD 17 C3   LDA &C317
     9920   8D 1B C3   STA &C31B
     9923   A0 09      LDY #&09
.L9C70
     9925   20 9A B6   JSR &B69A
     9928   99 0A C3   STA &C30A,Y
     992B   88         DEY
     992C   10 F7      BPL &9925
.L9C7A
     992E   20 0D 88   JSR &880D
.L9C7D
     9931   A9 EA      LDA #&EA
     9933   20 52 83   JSR &8352
     9936   A9 80      LDA #&80
     9938   14 CD      TRB &CD
     993A   E8         INX
     993B   D0 02      BNE &993F
     993D   04 CD      TSB &CD
.L9C8B
     993F   68         PLA
     9940   48         PHA
     9941   D0 19      BNE &995C
     9943   AE 17 C3   LDX &C317
     9946   E8         INX
     9947   D0 06      BNE &994F
     9949   8E 6F C2   STX &C26F
     994C   20 C0 9E   JSR &9EC0
.L9C9B
     994F   AC FD C1   LDY &C1FD
     9952   F0 08      BEQ &995C
     9954   BE 4F 97   LDX &974F,Y
     9957   A0 97      LDY #&97
     9959   20 F7 FF   JSR &FFF7
.L9CA8
     995C   A6 F4      LDX &F4
     995E   7A         PLY
     995F   A9 00      LDA #&00
     9961   60         RTS
.L9CAE
     9962   3A 30 2E ...
     9969   0D
.L9CB6
     996A   1B FF
     996C   1E FF
     996E   21 FF
     9970   24 FF
     9972   27 FF
     9974   2A FF
     9976   2D FF
.L9CC4
     9978   B0 8F
     997A   FF
     997B   4C A6
     997D   FF
     997E   B8 A9
     9980   FF
     9981   00 AD
     9983   FF
     9984   94 B1
     9986   FF
     9987   09 AE
     9989   FF
     998A   4F 9B
     998C   FF
.L9CD9
     998D   C0 CE      CPY #&CE
     998F   B0 02      BCS &9993
     9991   A0 CE      LDY #&CE
.L9CDF
     9993   60         RTS
.L9CE0
     9994   98         TYA
     9995   9D F0 0D   STA &0DF0,X
     9998   A9 22      LDA #&22
     999A   C8         INY
     999B   60         RTS
.L9CE8
     999C   88         DEY
     999D   60         RTS
.L9CEA
     999E   A2 0A      LDX #&0A
.L9CEC
     99A0   BD AE 99   LDA &99AE,X
     99A3   91 F2      STA (&F2),Y
     99A5   C8         INY
     99A6   CA         DEX
     99A7   10 F7      BPL &99A0
     99A9   A9 25      LDA #&25
.L9CF7
     99AB   A6 F4      LDX &F4
     99AD   60         RTS
.L9CFA
     99AE   08
     99AF   39
     99B0   30
     99B1   20 20 20 ...
.L9D01
     99B5   73 66 64 ...
.L9D05
     99B9   5A         PHY
     99BA   20 33 A4   JSR &A433
     99BD   A0 AC      LDY #&AC
     99BF   A2 09      LDX #&09
     99C1   A9 00      LDA #&00
.L9D0F
     99C3   11 BA      ORA (&BA),Y
     99C5   C8         INY
     99C6   CA         DEX
     99C7   10 FA      BPL &99C3
     99C9   AA         TAX
     99CA   F0 06      BEQ &99D2
     99CC   20 06 98   JSR &9806
     99CF   20 06 AE   JSR &AE06
.L9D1E
     99D2   7A         PLY
     99D3   A9 26      LDA #&26
     99D5   80 D4      BRA &99AB
.L9D23
     99D7   5A         PHY
     99D8   A9 FF      LDA #&FF
     99DA   48         PHA
     99DB   B1 F2      LDA (&F2),Y
     99DD   09 20      ORA #&20
     99DF   C9 66      CMP #&66
     99E1   D0 05      BNE &99E8
     99E3   68         PLA
     99E4   A9 43      LDA #&43
     99E6   48         PHA
     99E7   C8         INY
.L9D34
     99E8   A2 03      LDX #&03
.L9D36
     99EA   B1 F2      LDA (&F2),Y
     99EC   C8         INY
     99ED   C9 2E      CMP #&2E
     99EF   F0 0A      BEQ &99FB
     99F1   09 20      ORA #&20
     99F3   DD B5 99   CMP &99B5,X
     99F6   D0 13      BNE &9A0B
     99F8   CA         DEX
     99F9   10 EF      BPL &99EA
.L9D47
     99FB   B1 F2      LDA (&F2),Y
     99FD   C8         INY
     99FE   C9 20      CMP #&20
     9A00   F0 F9      BEQ &99FB
     9A02   B0 07      BCS &9A0B
     9A04   FA         PLX
     9A05   68         PLA
     9A06   DA         PHX
     9A07   DA         PHX
     9A08   4C 4C 98   JMP &984C
.L9D57
     9A0B   68         PLA
     9A0C   7A         PLY
     9A0D   A9 04      LDA #&04
     9A0F   A6 F4      LDX &F4
     9A11   60         RTS
.L9D5E
     9A12   5A         PHY
     9A13   A5 EF      LDA &EF
     9A15   C9 70      CMP #&70
     9A17   90 55      BCC &9A6E
     9A19   C9 74      CMP #&74
     9A1B   B0 51      BCS &9A6E
     9A1D   A9 00      LDA #&00
     9A1F   A8         TAY
     9A20   20 DA FF   JSR &FFDA
     9A23   C9 08      CMP #&08
     9A25   F0 03      BEQ &9A2A
     9A27   20 06 98   JSR &9806
.L9D76
     9A2A   A5 EF      LDA &EF
     9A2C   C9 72      CMP #&72
     9A2E   D0 44      BNE &9A74
     9A30   A5 F0      LDA &F0
     9A32   85 BA      STA &BA
     9A34   A5 F1      LDA &F1
     9A36   85 BB      STA &BB
     9A38   A0 0F      LDY #&0F
.L9D86
     9A3A   B1 BA      LDA (&BA),Y
     9A3C   99 15 C2   STA &C215,Y
     9A3F   88         DEY
     9A40   10 F8      BPL &9A3A
     9A42   AD 1A C2   LDA &C21A
     9A45   29 FD      AND #&FD
     9A47   C9 08      CMP #&08
     9A49   F0 11      BEQ &9A5C
.L9D97
     9A4B   A2 15      LDX #&15
     9A4D   A0 C2      LDY #&C2
     9A4F   EE 17 C3   INC &C317
     9A52   F0 03      BEQ &9A57
     9A54   CE 17 C3   DEC &C317
.L9DA3
     9A57   20 85 80   JSR &8085
     9A5A   10 08      BPL &9A64
.L9DA8
     9A5C   AD 1E C2   LDA &C21E
     9A5F   D0 EA      BNE &9A4B
     9A61   20 7B 88   JSR &887B
.L9DB0
     9A64   A0 00      LDY #&00
     9A66   91 BA      STA (&BA),Y
.L9DB4
     9A68   A6 F4      LDX &F4
     9A6A   7A         PLY
     9A6B   A9 00      LDA #&00
     9A6D   60         RTS
.L9DBA
     9A6E   A6 F4      LDX &F4
     9A70   7A         PLY
     9A71   A9 08      LDA #&08
     9A73   60         RTS
.L9DC0
     9A74   C9 73      CMP #&73
     9A76   D0 0C      BNE &9A84
     9A78   A0 04      LDY #&04
.L9DC6
     9A7A   B9 D0 C2   LDA &C2D0,Y
     9A7D   91 F0      STA (&F0),Y
     9A7F   88         DEY
     9A80   10 F8      BPL &9A7A
     9A82   30 E4      BMI &9A68
.L9DD0
     9A84   C9 70      CMP #&70
     9A86   D0 0E      BNE &9A96
     9A88   AD FA C8   LDA &C8FA
     9A8B   A0 00      LDY #&00
     9A8D   91 F0      STA (&F0),Y
     9A8F   A5 CD      LDA &CD
     9A91   C8         INY
     9A92   91 F0      STA (&F0),Y
     9A94   80 D2      BRA &9A68
.L9DE3
     9A96   C9 71      CMP #&71
     9A98   D0 D4      BNE &9A6E
     9A9A   20 07 9F   JSR &9F07
     9A9D   A0 03      LDY #&03
.L9DEC
     9A9F   B9 15 C2   LDA &C215,Y
     9AA2   91 F0      STA (&F0),Y
     9AA4   88         DEY
     9AA5   10 F8      BPL &9A9F
     9AA7   80 BF      BRA &9A68
.L9DF6
     9AA9   20 07 90   JSR &9007
     9AAC   0D
     9AAD   41 64 76 ...
     9ABE   8D
     9ABF   60         RTS
.L9E0D
     9AC0   98         TYA
     9AC1   48         PHA
     9AC2   B1 F2      LDA (&F2),Y
     9AC4   C9 20      CMP #&20
     9AC6   B0 29      BCS &9AF1
     9AC8   20 A9 9A   JSR &9AA9
     9ACB   20 07 90   JSR &9007
     9ACE   20 20 41 ...
     9AD4   8D
.L9E22
     9AD5   68         PLA
     9AD6   A8         TAY
     9AD7   A6 F4      LDX &F4
     9AD9   A9 09      LDA #&09
.L9E28
     9ADB   60         RTS
.L9E29
     9ADC   C8         INY
     9ADD   B1 F2      LDA (&F2),Y
     9ADF   C9 20      CMP #&20
     9AE1   B0 F8      BCS &9ADB
     9AE3   68         PLA
     9AE4   68         PLA
     9AE5   90 EE      BCC &9AD5
.L9E34
     9AE7   20 DC 9A   JSR &9ADC
     9AEA   D0 FB      BNE &9AE7
.L9E39
     9AEC   20 DC 9A   JSR &9ADC
     9AEF   F0 FB      BEQ &9AEC
.L9E3E
     9AF1   A2 03      LDX #&03
.L9E40
     9AF3   B1 F2      LDA (&F2),Y
     9AF5   C9 2E      CMP #&2E
     9AF7   F0 11      BEQ &9B0A
     9AF9   09 20      ORA #&20
     9AFB   DD B5 99   CMP &99B5,X
     9AFE   D0 E7      BNE &9AE7
     9B00   C8         INY
     9B01   CA         DEX
     9B02   10 EF      BPL &9AF3
     9B04   B1 F2      LDA (&F2),Y
     9B06   C9 21      CMP #&21
     9B08   B0 DD      BCS &9AE7
.L9E57
     9B0A   20 A9 9A   JSR &9AA9
     9B0D   A2 00      LDX #&00
.L9E5C
     9B0F   BD DC 9B   LDA &9BDC,X
     9B12   30 C1      BMI &9AD5
     9B14   20 07 90   JSR &9007
     9B17   20
     9B18   A0
     9B19   A0 09      LDY #&09
.L9E68
     9B1B   BD DC 9B   LDA &9BDC,X
     9B1E   30 07      BMI &9B27
     9B20   20 78 9D   JSR &9D78
     9B23   E8         INX
     9B24   88         DEY
     9B25   10 F4      BPL &9B1B
.L9E74
     9B27   20 73 9D   JSR &9D73
     9B2A   88         DEY
     9B2B   10 FA      BPL &9B27
     9B2D   DA         PHX
     9B2E   BD DE 9B   LDA &9BDE,X
     9B31   48         PHA
     9B32   20 ED 88   JSR &88ED
     9B35   20 E3 8F   JSR &8FE3
     9B38   68         PLA
     9B39   29 0F      AND #&0F
     9B3B   20 E3 8F   JSR &8FE3
     9B3E   20 76 9D   JSR &9D76
     9B41   FA         PLX
     9B42   E8         INX
     9B43   E8         INX
     9B44   E8         INX
     9B45   80 C8      BRA &9B0F
.L9E95
     9B47   AA
     9B48   60
     9B49   6C
     9B4A   76
     9B4B   82
     9B4C   8C
     9B4D   96
     9B4E   A3
.L9E9D
     9B4F   86 B4      STX &B4
     9B51   84 B5      STY &B5
     9B53   8D D6 C2   STA &C2D6
     9B56   AA         TAX
     9B57   30 13      BMI &9B6C
     9B59   C9 0C      CMP #&0C
     9B5B   B0 0F      BCS &9B6C
     9B5D   9C D5 C2   STZ &C2D5
     9B60   BD 79 9B   LDA &9B79,X
     9B63   48         PHA
     9B64   BD 6D 9B   LDA &9B6D,X
     9B67   48         PHA
     9B68   A6 B4      LDX &B4
     9B6A   A4 B5      LDY &B5
.L9EBA
     9B6C   60         RTS
.L9EBB
     9B6D   3D
     9B6E   8E
     9B6F   ED
     9B70   84
     9B71   ED
     9B72   29
     9B73   3E
     9B74   38
     9B75   17
     9B76   88
     9B77   25
     9B78   ED
.L9EC7
     9B79   9D
     9B7A   A9
     9B7B   A0
     9B7C   9B
     9B7D   A0
     9B7E   91
     9B7F   A6
     9B80   9D
     9B81   9E
     9B82   91
     9B83   92
     9B84   A0
.L9ED3
     9B85   20 DB 81   JSR &81DB
     9B88   A9 A2      LDA #&A2
     9B8A   20 BE B5   JSR &B5BE
     9B8D   20 1A A2   JSR &A21A
     9B90   A2 FD      LDX #&FD
.L9EE3
     9B92   E8         INX
     9B93   E8         INX
     9B94   A0 FF      LDY #&FF
.L9EE7
     9B96   E8         INX
     9B97   C8         INY
     9B98   BD DC 9B   LDA &9BDC,X
     9B9B   30 1A      BMI &9BB7
     9B9D   D1 B4      CMP (&B4),Y
     9B9F   F0 F5      BEQ &9B96
     9BA1   09 20      ORA #&20
     9BA3   D1 B4      CMP (&B4),Y
     9BA5   F0 EF      BEQ &9B96
     9BA7   CA         DEX
.L9EF9
     9BA8   E8         INX
     9BA9   BD DC 9B   LDA &9BDC,X
     9BAC   10 FA      BPL &9BA8
     9BAE   B1 B4      LDA (&B4),Y
     9BB0   C9 2E      CMP #&2E
     9BB2   D0 DE      BNE &9B92
     9BB4   C8         INY
     9BB5   D0 0F      BNE &9BC6
.L9F08
     9BB7   98         TYA
     9BB8   F0 19      BEQ &9BD3
     9BBA   B1 B4      LDA (&B4),Y
     9BBC   29 5F      AND #&5F
     9BBE   C9 41      CMP #&41
     9BC0   90 04      BCC &9BC6
     9BC2   C9 5B      CMP #&5B
     9BC4   90 CC      BCC &9B92
.L9F17
     9BC6   98         TYA
     9BC7   18         CLC
     9BC8   65 B4      ADC &B4
     9BCA   85 B4      STA &B4
     9BCC   90 02      BCC &9BD0
     9BCE   E6 B5      INC &B5
.L9F21
     9BD0   20 1A A2   JSR &A21A
.L9F24
     9BD3   BD DC 9B   LDA &9BDC,X
     9BD6   48         PHA
     9BD7   BD DD 9B   LDA &9BDD,X
     9BDA   48         PHA
     9BDB   60         RTS
.L9F2D
     9BDC   41 43 43 ...
     9BE2   96
     9BE3   26
     9BE4   16
     9BE5   42 41 43 ...
     9BE9   A1
     9BEA   E1
     9BEB   00
     9BEC   42 59 45 
     9BEF   9E
     9BF0   3E
     9BF1   00
     9BF2   43 44 49 ...
     9BF6   92
     9BF7   9D
     9BF8   20
     9BF9   43 4F 4D ...
     9C00   9F
     9C01   CD
     9C02   50
     9C03   43 4F 50 ...
     9C07   A5
     9C08   36
     9C09   13
     9C0A   44 45 53 ...
     9C11   96
     9C12   C3
     9C13   10
     9C14   44 49 52 
     9C17   92
     9C18   71
     9C19   20
     9C1A   44 49 53 ...
     9C22   9E
     9C23   6F
     9C24   40
     9C25   46 52 45 ...
     9C29   9D
     9C2A   9E
     9C2B   00
     9C2C   4C 43 41 ...
     9C30   A1
     9C31   C9
     9C32   00
     9C33   4C 45 58 
     9C36   A1
     9C37   D5
     9C38   00
     9C39   4C 49 42 
     9C3C   A1
     9C3D   93
     9C3E   30
     9C3F   4D 41 50 
     9C42   9D
     9C43   CD
     9C44   00
     9C45   4D 4F 55 ...
     9C4A   80
     9C4B   74
     9C4C   40
     9C4D   52 45 4E ...
     9C53   A2
     9C54   4B
     9C55   22
     9C56   54 49 54 ...
     9C5B   9F
     9C5C   AC
     9C5D   70
     9C5E   A0
     9C5F   ED
.L9FB1
     9C60   3C 4C 69 ...
     9C6B   00
.L9FBD
     9C6C   3C 4F 62 ...
     9C75   00
.L9FC7
     9C76   3C 2A 4F ...
     9C81   00
.L9FD3
     9C82   28 3C 44 ...
     9C8B   00
.L9FDD
     9C8C   3C 53 50 ...
     9C95   00
.L9FE7
     9C96   28 4C 29 ...
     9CA2   00
.L9FF4
     9CA3   3C 54 69 ...
.L9FFB
     9CAA   00
.chunk_18
     9CAB   A5 B6      LDA &B6
     9CAD   8D 93 C2   STA &C293
     9CB0   A5 B7      LDA &B7
     9CB2   8D 94 C2   STA &C294
     9CB5   60         RTS
.chunk_19
     9CB6   20 4B A9   JSR &A94B
     9CB9   7E 04 C2   ROR &C204,X
     9CBC   38         SEC
     9CBD   3E 04 C2   ROL &C204,X
     9CC0   60         RTS
.chunk_22
     9CC1   AD 2F C2   LDA &C22F
     9CC4   8D 17 C3   STA &C317
     9CC7   60         RTS
.chunk_23
     9CC8   AD 37 C2   LDA &C237
     9CCB   0D 38 C2   ORA &C238
     9CCE   0D 39 C2   ORA &C239
     9CD1   60         RTS
.chunk_24
     9CD2   BD FD BF   LDA &BFFD,X
     9CD5   7D FD C0   ADC &C0FD,X
     9CD8   60         RTS
.chunk_25
     9CD9   BD FD C0   LDA &C0FD,X
     9CDC   79 37 C2   ADC &C237,Y
     9CDF   9D FD C0   STA &C0FD,X
     9CE2   60         RTS
.chunk_26
     9CE3   A0 04      LDY #&04
     9CE5   B1 B6      LDA (&B6),Y
     9CE7   60         RTS
.chunk_27
     9CE8   9D 15 C2   STA &C215,X
     9CEB   88         DEY
     9CEC   CA         DEX
     9CED   60         RTS
.chunk_28
     9CEE   B1 B6      LDA (&B6),Y
     9CF0   0A         ASL A
     9CF1   2E 2B C2   ROL &C22B
     9CF4   60         RTS
.chunk_29
     9CF5   A0 12      LDY #&12
     9CF7   B1 B6      LDA (&B6),Y
     9CF9   C9 01      CMP #&01
     9CFB   60         RTS
.chunk_30
     9CFC   C8         INY
     9CFD   A9 00      LDA #&00
     9CFF   71 B6      ADC (&B6),Y
     9D01   99 24 C2   STA &C224,Y
     9D04   CA         DEX
     9D05   60         RTS
.chunk_31
     9D06   20 D4 8B   JSR &8BD4
     9D09   4C 46 8C   JMP &8C46
.chunk_32
     9D0C   B9 30 C2   LDA &C230,Y
     9D0F   4C B7 B5   JMP &B5B7
.chunk_33
     9D12   20 39 92   JSR &9239
     9D15   C9 22      CMP #&22
     9D17   60         RTS
.chunk_34
     9D18   AD B4 C2   LDA &C2B4
     9D1B   C9 03      CMP #&03
     9D1D   60         RTS
.chunk_35
     9D1E   AD 9A C2   LDA &C29A
     9D21   8D B7 C2   STA &C2B7
     9D24   4C 43 B5   JMP &B543
.chunk_36
     9D27   AD 5E 0D   LDA &0D5E
     9D2A   8D 24 FE   STA &FE24
     9D2D   60         RTS
.chunk_37
     9D2E   85 A3      STA &A3
     9D30   2C E4 C2   BIT &C2E4
     9D33   60         RTS
.chunk_38
     9D34   A5 CD      LDA &CD
     9D36   29 20      AND #&20
     9D38   60         RTS
.L9FFC
     9D39   A2 30      LDX #&30
     9D3B   A0 39      LDY #&39
     9D3D   60         RTS
.LA001
     9D3E   A6 B4      LDX &B4
     9D40   F0 0A      BEQ &9D4C
     9D42   CA         DEX
     9D43   D0 0E      BNE &9D53
     9D45   A9 04      LDA #&04
     9D47   04 CD      TSB &CD
     9D49   98         TYA
     9D4A   D0 04      BNE &9D50
.LA00F
     9D4C   A9 04      LDA #&04
     9D4E   14 CD      TRB &CD
.LA013
     9D50   4C 0D 88   JMP &880D
.LA016
     9D53   E0 03      CPX #&03
     9D55   D0 10      BNE &9D67
     9D57   20 8F 8D   JSR &8D8F
     9D5A   20 1E B1   JSR &B11E
     9D5D   A5 B5      LDA &B5
     9D5F   29 03      AND #&03
     9D61   8D FD C1   STA &C1FD
     9D64   4C 46 8D   JMP &8D46
.LA02A
     9D67   20 FB 81   JSR &81FB
     9D6A   CB
     9D6B   42 61 64 ...
     9D72   00
.LA036
     9D73   A9 20      LDA #&20
     9D75   2C
.LA03A
     9D76   A9 0D      LDA #&0D
.LA03C
     9D78   DA         PHX
     9D79   5A         PHY
     9D7A   48         PHA
     9D7B   A9 C7      LDA #&C7
     9D7D   A0 00      LDY #&00
     9D7F   20 54 83   JSR &8354
     9D82   E0 30      CPX #&30
     9D84   90 09      BCC &9D8F
     9D86   E0 3A      CPX #&3A
     9D88   B0 05      BCS &9D8F
     9D8A   20 F4 FF   JSR &FFF4
     9D8D   A2 00      LDX #&00
.LA053
     9D8F   68         PLA
     9D90   48         PHA
     9D91   20 E3 FF   JSR &FFE3
     9D94   A9 C7      LDA #&C7
     9D96   A0 FF      LDY #&FF
     9D98   20 F4 FF   JSR &FFF4
     9D9B   68         PLA
     9D9C   7A         PLY
     9D9D   FA         PLX
     9D9E   60         RTS
.LA063
     9D9F   20 07 9F   JSR &9F07
     9DA2   20 21 9F   JSR &9F21
     9DA5   20 07 90   JSR &9007
     9DA8   46 72 65 ...
     9DAC   8D
     9DAD   20 07 9F   JSR &9F07
     9DB0   A0 01      LDY #&01
     9DB2   A2 02      LDX #&02
     9DB4   38         SEC
.LA079
     9DB5   B9 FB C0   LDA &C0FB,Y
     9DB8   F9 15 C2   SBC &C215,Y
     9DBB   99 15 C2   STA &C215,Y
     9DBE   C8         INY
     9DBF   CA         DEX
     9DC0   10 F3      BPL &9DB5
     9DC2   20 21 9F   JSR &9F21
     9DC5   20 07 90   JSR &9007
     9DC8   55 73 65 ...
     9DCC   8D
.LA091
     9DCD   60         RTS
.LA092
     9DCE   20 07 90   JSR &9007
     9DD1   41 64 64 ...
     9DE2   8D
     9DE3   A2 00      LDX #&00
.LA0A9
     9DE5   EC FE C1   CPX &C1FE
     9DE8   F0 E3      BEQ &9DCD
     9DEA   E8         INX
     9DEB   E8         INX
     9DEC   E8         INX
     9DED   86 C6      STX &C6
     9DEF   A0 02      LDY #&02
.LA0B5
     9DF1   CA         DEX
     9DF2   BD 00 C0   LDA &C000,X
     9DF5   20 80 90   JSR &9080
     9DF8   88         DEY
     9DF9   10 F6      BPL &9DF1
     9DFB   20 07 90   JSR &9007
     9DFE   20 20 3A ...
     9E02   A0
     9E03   A6 C6      LDX &C6
     9E05   A0 02      LDY #&02
.LA0CB
     9E07   CA         DEX
     9E08   BD 00 C1   LDA &C100,X
     9E0B   20 80 90   JSR &9080
     9E0E   88         DEY
     9E0F   10 F6      BPL &9E07
     9E11   20 76 9D   JSR &9D76
     9E14   A6 C6      LDX &C6
     9E16   80 CD      BRA &9DE5
.LA0DC
     9E18   AE D9 C2   LDX &C2D9
     9E1B   D0 B0      BNE &9DCD
     9E1D   AE FE C1   LDX &C1FE
     9E20   E0 E1      CPX #&E1
     9E22   90 A9      BCC &9DCD
     9E24   20 07 90   JSR &9007
     9E27   43 6F 6D ...
     9E3D   8D
.RTS12
     9E3E   60         RTS
.LA103
     9E3F   AD 17 C3   LDA &C317
     9E42   48         PHA
     9E43   AA         TAX
     9E44   E8         INX
     9E45   F0 F7      BEQ &9E3E
     9E47   4C 06 AE   JMP &AE06
.LA12A
     9E4A   00
     9E4B   00
     9E4C   C9
     9E4D   FF
     9E4E   FF
     9E4F   1B
     9E50   00
     9E51   00
     9E52   00
     9E53   00
     9E54   00
.LA135
     9E55   20 1A A2   JSR &A21A
     9E58   AC 17 C3   LDY &C317
     9E5B   C8         INY
     9E5C   F0 01      BEQ &9E5F
     9E5E   88         DEY
.LA13F
     9E5F   8C 6F C2   STY &C26F
     9E62   20 8C 94   JSR &948C
     9E65   C9 20      CMP #&20
     9E67   90 06      BCC &9E6F
     9E69   20 AC 86   JSR &86AC
     9E6C   8D 6F C2   STA &C26F
.LA150
     9E6F   60         RTS
.LA151
     9E70   20 55 9E   JSR &9E55
     9E73   A2 09      LDX #&09
.LA156
     9E75   BD AC C3   LDA &C3AC,X
     9E78   F0 14      BEQ &9E8E
     9E7A   BD B6 C3   LDA &C3B6,X
     9E7D   29 E0      AND #&E0
     9E7F   CD 6F C2   CMP &C26F
     9E82   D0 0A      BNE &9E8E
     9E84   18         CLC
     9E85   8A         TXA
     9E86   69 30      ADC #&30
     9E88   A8         TAY
     9E89   A9 00      LDA #&00
     9E8B   20 09 AE   JSR &AE09
.LA16F
     9E8E   CA         DEX
     9E8F   10 E4      BPL &9E75
     9E91   AD 17 C3   LDA &C317
     9E94   CD 6F C2   CMP &C26F
     9E97   D0 3F      BNE &9ED8
     9E99   A9 FF      LDA #&FF
     9E9B   8D 17 C3   STA &C317
     9E9E   8D 16 C3   STA &C316
     9EA1   A2 00      LDX #&00
     9EA3   20 A8 9E   JSR &9EA8
     9EA6   80 30      BRA &9ED8
.LA189
     9EA8   A0 09      LDY #&09
.LA18B
     9EAA   B9 B3 9E   LDA &9EB3,Y
     9EAD   9D 00 C3   STA &C300,X
     9EB0   E8         INX
     9EB1   88         DEY
     9EB2   10 F6      BPL &9EAA
.RTS1
     9EB4   60         RTS
.LA196
     9EB5   0D
     9EB6   22
     9EB7   74 65 73 ...
     9EBC   22
.LA19E
     9EBD   20 55 9E   JSR &9E55
.LA1A1
     9EC0   AD 6F C2   LDA &C26F
     9EC3   8D 17 C3   STA &C317
     9EC6   A2 FC      LDX #&FC
     9EC8   A0 9E      LDY #&9E
     9ECA   20 85 80   JSR &8085
     9ECD   A9 01      LDA #&01
     9ECF   85 B4      STA &B4
     9ED1   A9 A0      LDA #&A0
     9ED3   85 B5      STA &B5
     9ED5   20 72 92   JSR &9272
.LA1B9
     9ED8   AD 1F C3   LDA &C31F
     9EDB   CD 6F C2   CMP &C26F
     9EDE   D0 08      BNE &9EE8
     9EE0   A9 FF      LDA #&FF
     9EE2   8D 1E C3   STA &C31E
     9EE5   8D 1F C3   STA &C31F
.LA1C9
     9EE8   AD 1B C3   LDA &C31B
     9EEB   CD 6F C2   CMP &C26F
     9EEE   D0 C4      BNE &9EB4
     9EF0   A9 FF      LDA #&FF
     9EF2   8D 1A C3   STA &C31A
     9EF5   8D 1B C3   STA &C31B
     9EF8   A2 0A      LDX #&0A
     9EFA   80 AC      BRA &9EA8
.LA1DF
     9EFC   00
     9EFD   00
     9EFE   C9
     9EFF   FF
     9F00   FF
     9F01   1B
     9F02   00
     9F03   00
     9F04   00
     9F05   01
     9F06   00
.LA1EA
     9F07   A2 03      LDX #&03
.LA1EE
     9F09   9E 15 C2   STZ &C215,X
     9F0C   9E 27 C2   STZ &C227,X
     9F0F   CA         DEX
     9F10   10 F7      BPL &9F09
     9F12   20 9E 84   JSR &849E
     9F15   A2 02      LDX #&02
.LA1FC
     9F17   BD 5D C2   LDA &C25D,X
     9F1A   9D 16 C2   STA &C216,X
     9F1D   CA         DEX
     9F1E   10 F7      BPL &9F17
     9F20   60         RTS
.LA206
     9F21   AD 18 C2   LDA &C218
     9F24   20 80 90   JSR &9080
     9F27   AD 17 C2   LDA &C217
     9F2A   20 80 90   JSR &9080
     9F2D   AD 16 C2   LDA &C216
     9F30   20 80 90   JSR &9080
     9F33   20 07 90   JSR &9007
     9F36   20 53 65 ...
     9F40   A0
     9F41   A2 1F      LDX #&1F
     9F43   8E 33 C2   STX &C233
     9F46   A9 00      LDA #&00
     9F48   A2 09      LDX #&09
.LA22F
     9F4A   9D 40 C2   STA &C240,X
     9F4D   CA         DEX
     9F4E   10 FA      BPL &9F4A
.LA235
     9F50   0E 15 C2   ASL &C215
     9F53   2E 16 C2   ROL &C216
     9F56   2E 17 C2   ROL &C217
     9F59   2E 18 C2   ROL &C218
     9F5C   A2 00      LDX #&00
     9F5E   A0 09      LDY #&09
.LA245
     9F60   BD 40 C2   LDA &C240,X
     9F63   2A         ROL A
     9F64   C9 0A      CMP #&0A
     9F66   90 02      BCC &9F6A
     9F68   E9 0A      SBC #&0A
.LA24F
     9F6A   9D 40 C2   STA &C240,X
     9F6D   E8         INX
     9F6E   88         DEY
     9F6F   10 EF      BPL &9F60
     9F71   CE 33 C2   DEC &C233
     9F74   10 DA      BPL &9F50
     9F76   A0 20      LDY #&20
     9F78   A2 08      LDX #&08
.LA25F
     9F7A   D0 02      BNE &9F7E
     9F7C   A0 2C      LDY #&2C
.LA263
     9F7E   BD 40 C2   LDA &C240,X
     9F81   D0 08      BNE &9F8B
     9F83   C0 2C      CPY #&2C
     9F85   F0 04      BEQ &9F8B
     9F87   A9 20      LDA #&20
     9F89   D0 05      BNE &9F90
.LA270
     9F8B   A0 2C      LDY #&2C
     9F8D   18         CLC
     9F8E   69 30      ADC #&30
.LA275
     9F90   20 78 9D   JSR &9D78
     9F93   E0 06      CPX #&06
     9F95   F0 04      BEQ &9F9B
     9F97   E0 03      CPX #&03
     9F99   D0 04      BNE &9F9F
.LA280
     9F9B   98         TYA
     9F9C   20 78 9D   JSR &9D78
.LA284
     9F9F   CA         DEX
     9FA0   10 D8      BPL &9F7A
     9FA2   20 07 90   JSR &9007
     9FA5   20 42 79 ...
     9FAB   A0
     9FAC   60         RTS
.LA292
     9FAD   20 1E B1   JSR &B11E
     9FB0   20 8F 8D   JSR &8D8F
     9FB3   20 1A A2   JSR &A21A
     9FB6   A0 00      LDY #&00
.LA29D
     9FB8   20 12 9D   JSR &9D12
     9FBB   F0 04      BEQ &9FC1
     9FBD   C9 20      CMP #&20
     9FBF   B0 02      BCS &9FC3
.LA2A9
     9FC1   A9 0D      LDA #&0D
.LA2AB
     9FC3   99 D9 C8   STA &C8D9,Y
     9FC6   C8         INY
     9FC7   C0 13      CPY #&13
     9FC9   D0 ED      BNE &9FB8
     9FCB   4C 46 8D   JMP &8D46
.LA2B6
     9FCE   20 1A A2   JSR &A21A
     9FD1   20 8C 94   JSR &948C
     9FD4   C9 21      CMP #&21
     9FD6   B0 2A      BCS &A002
     9FD8   A9 84      LDA #&84
     9FDA   20 F4 FF   JSR &FFF4
     9FDD   8A         TXA
     9FDE   D0 12      BNE &9FF2
     9FE0   98         TYA
     9FE1   30 0F      BMI &9FF2
     9FE3   8D 60 C2   STA &C260
     9FE6   A9 80      LDA #&80
     9FE8   38         SEC
     9FE9   ED 60 C2   SBC &C260
     9FEC   8D 61 C2   STA &C261
     9FEF   4C 8B A0   JMP &A08B
.LA2DB
     9FF2   20 FB 81   JSR &81FB
     9FF5   94
     9FF6   42 61 64 ...
     A001   00
.LA2EB
     A002   8D 15 C2   STA &C215
     A005   C8         INY
     A006   B1 B4      LDA (&B4),Y
     A008   8D 16 C2   STA &C216
     A00B   C8         INY
     A00C   20 A8 B6   JSR &B6A8
     A00F   F0 04      BEQ &A015
     A011   C9 2C      CMP #&2C
     A013   D0 DD      BNE &9FF2
.LA2FF
     A015   C8         INY
     A016   20 A8 B6   JSR &B6A8
     A019   F0 FA      BEQ &A015
     A01B   8D 17 C2   STA &C217
     A01E   C8         INY
     A01F   B1 B4      LDA (&B4),Y
     A021   8D 18 C2   STA &C218
     A024   C9 21      CMP #&21
     A026   B0 0C      BCS &A034
     A028   AD 17 C2   LDA &C217
     A02B   8D 18 C2   STA &C218
     A02E   A9 30      LDA #&30
     A030   8D 17 C2   STA &C217
     A033   88         DEY
.LA31F
     A034   C8         INY
     A035   20 A8 B6   JSR &B6A8
     A038   F0 FA      BEQ &A034
     A03A   B0 B6      BCS &9FF2
     A03C   A2 03      LDX #&03
.LA32A
     A03E   BD 15 C2   LDA &C215,X
     A041   C9 30      CMP #&30
     A043   90 AD      BCC &9FF2
     A045   C9 3A      CMP #&3A
     A047   B0 08      BCS &A051
     A049   38         SEC
     A04A   E9 30      SBC #&30
     A04C   9D 15 C2   STA &C215,X
     A04F   10 0F      BPL &A060
.LA33D
     A051   29 5F      AND #&5F
     A053   C9 41      CMP #&41
     A055   90 9B      BCC &9FF2
     A057   C9 47      CMP #&47
     A059   B0 97      BCS &9FF2
     A05B   E9 36      SBC #&36
     A05D   9D 15 C2   STA &C215,X
.LA34C
     A060   CA         DEX
     A061   10 DB      BPL &A03E
     A063   E8         INX
     A064   20 9D A0   JSR &A09D
     A067   30 89      BMI &9FF2
     A069   8D 60 C2   STA &C260
     A06C   A2 02      LDX #&02
     A06E   20 9D A0   JSR &A09D
     A071   10 03      BPL &A076
.LA35F
     A073   4C F2 9F   JMP &9FF2
.LA362
     A076   F0 FB      BEQ &A073
     A078   8D 61 C2   STA &C261
     A07B   18         CLC
     A07C   AD 60 C2   LDA &C260
     A07F   6D 61 C2   ADC &C261
     A082   10 07      BPL &A08B
     A084   C9 80      CMP #&80
     A086   F0 03      BEQ &A08B
     A088   4C F2 9F   JMP &9FF2
.LA377
     A08B   20 06 AE   JSR &AE06
     A08E   20 DB 81   JSR &81DB
     A091   A9 08      LDA #&08
     A093   04 CD      TSB &CD
     A095   20 A0 95   JSR &95A0
     A098   A9 08      LDA #&08
     A09A   14 CD      TRB &CD
     A09C   60         RTS
.LA389
     A09D   BD 15 C2   LDA &C215,X
     A0A0   0A         ASL A
     A0A1   0A         ASL A
     A0A2   0A         ASL A
     A0A3   0A         ASL A
     A0A4   1D 16 C2   ORA &C216,X
     A0A7   60         RTS
.LA394
     A0A8   20 02 A2   JSR &A202
     A0AB   A5 B5      LDA &B5
     A0AD   48         PHA
     A0AE   A5 B4      LDA &B4
     A0B0   48         PHA
     A0B1   20 02 A2   JSR &A202
     A0B4   20 8C 94   JSR &948C
     A0B7   C9 20      CMP #&20
     A0B9   B0 23      BCS &A0DE
     A0BB   68         PLA
     A0BC   85 B4      STA &B4
     A0BE   8D 40 C2   STA &C240
     A0C1   68         PLA
     A0C2   85 B5      STA &B5
     A0C4   8D 41 C2   STA &C241
     A0C7   60         RTS
.LA3B5
     A0C8   20 C2 A1   JSR &A1C2
     A0CB   20 0D 88   JSR &880D
     A0CE   AD D6 C2   LDA &C2D6
     A0D1   C9 0B      CMP #&0B
     A0D3   F0 09      BEQ &A0DE
     A0D5   A9 0B      LDA #&0B
     A0D7   A6 C0      LDX &C0
     A0D9   A4 C1      LDY &C1
     A0DB   4C 20 97   JMP &9720
.LA3CB
     A0DE   20 FB 81   JSR &81FB
     A0E1   FE
     A0E2   42 61 64 ...
     A0ED   00
.LA3DB
     A0EE   A5 B4      LDA &B4
     A0F0   85 C0      STA &C0
     A0F2   A5 B5      LDA &B5
     A0F4   85 C1      STA &C1
     A0F6   20 B9 89   JSR &89B9
     A0F9   F0 16      BEQ &A111
     A0FB   20 0D 88   JSR &880D
     A0FE   A5 C0      LDA &C0
     A100   85 B4      STA &B4
     A102   A5 C1      LDA &C1
     A104   85 B5      STA &B5
     A106   20 B0 A1   JSR &A1B0
     A109   20 B9 89   JSR &89B9
     A10C   D0 BA      BNE &A0C8
     A10E   20 C2 A1   JSR &A1C2
.LA3FE
     A111   A5 B4      LDA &B4
     A113   8D A2 C2   STA &C2A2
     A116   A5 B5      LDA &B5
     A118   8D A3 C2   STA &C2A3
     A11B   A0 0E      LDY #&0E
     A11D   B1 B6      LDA (&B6),Y
     A11F   A2 02      LDX #&02
.LA40E
     A121   C8         INY
     A122   31 B6      AND (&B6),Y
     A124   CA         DEX
     A125   10 FA      BPL &A121
     A127   1A         INC A
     A128   D0 13      BNE &A13D
     A12A   A6 B6      LDX &B6
     A12C   A4 B7      LDY &B7
     A12E   A9 40      LDA #&40
     A130   20 09 AE   JSR &AE09
     A133   8D 32 C3   STA &C332
     A136   A2 5D      LDX #&5D
     A138   A0 97      LDY #&97
     A13A   4C F7 FF   JMP &FFF7
.LA42A
     A13D   A0 0B      LDY #&0B
     A13F   B1 B6      LDA (&B6),Y
     A141   C8         INY
     A142   31 B6      AND (&B6),Y
     A144   C8         INY
     A145   31 B6      AND (&B6),Y
     A147   1A         INC A
     A148   D0 08      BNE &A152
     A14A   20 FB 81   JSR &81FB
     A14D   93
     A14E   4E 6F 21 
     A151   00
.LA43F
     A152   A9 A5      LDA #&A5
     A154   8D A8 C2   STA &C2A8
     A157   A2 A2      LDX #&A2
     A159   A0 C2      LDY #&C2
     A15B   86 B8      STX &B8
     A15D   84 B9      STY &B9
     A15F   20 B9 89   JSR &89B9
     A162   20 E3 9C   JSR &9CE3
     A165   A0 00      LDY #&00
     A167   11 B6      ORA (&B6),Y
     A169   30 03      BMI &A16E
     A16B   4C F3 89   JMP &89F3
.LA45C
     A16E   20 12 8A   JSR &8A12
     A171   AD AB C2   LDA &C2AB
     A174   C9 FF      CMP #&FF
     A176   D0 0C      BNE &A184
     A178   AD AA C2   LDA &C2AA
     A17B   C9 FE      CMP #&FE
     A17D   90 05      BCC &A184
.LA46D
     A17F   A9 01      LDA #&01
     A181   6C A8 C2   JMP (&C2A8)
.LA472
     A184   24 CD      BIT &CD
     A186   10 F7      BPL &A17F
     A188   20 32 80   JSR &8032
     A18B   A2 A8      LDX #&A8
     A18D   A0 C2      LDY #&C2
     A18F   A9 04      LDA #&04
     A191   4C 06 04   JMP &0406
.LA482
     A194   20 CE 91   JSR &91CE
     A197   A0 09      LDY #&09
.LA487
     A199   B9 CC C8   LDA &C8CC,Y
     A19C   99 0A C3   STA &C30A,Y
     A19F   88         DEY
     A1A0   10 F7      BPL &A199
     A1A2   A0 03      LDY #&03
.LA492
     A1A4   B9 14 C3   LDA &C314,Y
     A1A7   99 18 C3   STA &C318,Y
     A1AA   88         DEY
     A1AB   10 F7      BPL &A1A4
.LA49B
     A1AD   4C 0D 88   JMP &880D
.LA49E
     A1B0   A0 03      LDY #&03
.LA4A0
     A1B2   B9 14 C3   LDA &C314,Y
     A1B5   99 30 C2   STA &C230,Y
     A1B8   B9 18 C3   LDA &C318,Y
     A1BB   20 B7 B5   JSR &B5B7
     A1BE   10 F2      BPL &A1B2
     A1C0   30 EB      BMI &A1AD
.LA4B1
     A1C2   A0 03      LDY #&03
.LA4B3
     A1C4   20 0C 9D   JSR &9D0C
     A1C7   10 FB      BPL &A1C4
     A1C9   60         RTS
.LA4BD
     A1CA   20 B0 A1   JSR &A1B0
     A1CD   20 C2 A1   JSR &A1C2
     A1D0   20 30 91   JSR &9130
     A1D3   4C 0D 88   JMP &880D
.LA4C9
     A1D6   20 B0 A1   JSR &A1B0
     A1D9   20 C2 A1   JSR &A1C2
     A1DC   20 8C 91   JSR &918C
     A1DF   4C 0D 88   JMP &880D
.LA4D5
     A1E2   A0 03      LDY #&03
.LA4D7
     A1E4   B9 1C C3   LDA &C31C,Y
     A1E7   99 2C C2   STA &C22C,Y
     A1EA   B9 14 C3   LDA &C314,Y
     A1ED   99 1C C3   STA &C31C,Y
     A1F0   88         DEY
     A1F1   10 F1      BPL &A1E4
     A1F3   20 0D 88   JSR &880D
     A1F6   A0 09      LDY #&09
.LA4EB
     A1F8   B9 CC C8   LDA &C8CC,Y
     A1FB   99 00 C3   STA &C300,Y
     A1FE   88         DEY
     A1FF   10 F7      BPL &A1F8
     A201   60         RTS
.LA4F5
     A202   A0 00      LDY #&00
.LA4F7
     A204   20 AB 85   JSR &85AB
     A207   F0 03      BEQ &A20C
.LA4FC
     A209   C8         INY
     A20A   D0 F8      BNE &A204
.LA4FF
     A20C   C9 2E      CMP #&2E
     A20E   F0 F9      BEQ &A209
     A210   98         TYA
     A211   18         CLC
     A212   65 B4      ADC &B4
     A214   85 B4      STA &B4
     A216   90 02      BCC &A21A
     A218   E6 B5      INC &B5
.LA50D
     A21A   A0 00      LDY #&00
     A21C   18         CLC
     A21D   08         PHP
.LA511
     A21E   20 A8 B6   JSR &B6A8
     A221   90 11      BCC &A234
     A223   F0 0C      BEQ &A231
     A225   C9 22      CMP #&22
     A227   D0 0B      BNE &A234
     A229   28         PLP
     A22A   90 03      BCC &A22F
     A22C   4C C7 85   JMP &85C7
.LA523
     A22F   38         SEC
     A230   08         PHP
.LA525
     A231   C8         INY
     A232   D0 EA      BNE &A21E
.LA528
     A234   98         TYA
     A235   28         PLP
     A236   18         CLC
     A237   65 B4      ADC &B4
     A239   85 B4      STA &B4
     A23B   90 02      BCC &A23F
     A23D   E6 B5      INC &B5
.LA533
     A23F   60         RTS
.LA534
     A240   20 8C 94   JSR &948C
     A243   29 7F      AND #&7F
     A245   C9 3A      CMP #&3A
     A247   D0 F6      BNE &A23F
.LA53E
     A249   4C CC 87   JMP &87CC
.LA541
     A24C   A5 B4      LDA &B4
     A24E   48         PHA
     A24F   A5 B5      LDA &B5
     A251   48         PHA
     A252   20 40 A2   JSR &A240
     A255   20 9F 8B   JSR &8B9F
     A258   20 E9 89   JSR &89E9
     A25B   F0 03      BEQ &A260
     A25D   4C CD 89   JMP &89CD
.LA555
     A260   20 4F 93   JSR &934F
     A263   20 0D 88   JSR &880D
     A266   10 21      BPL &A289
     A268   FA         PLX
     A269   68         PLA
     A26A   85 B4      STA &B4
     A26C   86 B5      STX &B5
     A26E   48         PHA
     A26F   DA         PHX
     A270   20 8C 94   JSR &948C
     A273   29 7D      AND #&7D
     A275   C9 24      CMP #&24
     A277   F0 D0      BEQ &A249
.LA570
     A279   20 AB 85   JSR &85AB
     A27C   F0 07      BEQ &A285
     A27E   C9 5E      CMP #&5E
     A280   F0 C7      BEQ &A249
.LA579
     A282   C8         INY
     A283   D0 F4      BNE &A279
.LA57C
     A285   C9 2E      CMP #&2E
     A287   F0 F9      BEQ &A282
.LA580
     A289   20 A8 A0   JSR &A0A8
     A28C   20 40 A2   JSR &A240
     A28F   20 BC B5   JSR &B5BC
     A292   20 CA 8A   JSR &8ACA
     A295   08         PHP
     A296   20 D7 8B   JSR &8BD7
     A299   28         PLP
     A29A   D0 0D      BNE &A2A9
     A29C   A5 B6      LDA &B6
     A29E   A0 03      LDY #&03
.LA59C
     A2A0   99 34 C2   STA &C234,Y
     A2A3   B9 13 C3   LDA &C313,Y
     A2A6   88         DEY
     A2A7   10 F7      BPL &A2A0
.LA5A5
     A2A9   AD 2E C2   LDA &C22E
     A2AC   10 07      BPL &A2B5
     A2AE   A0 02      LDY #&02
.LA5AC
     A2B0   20 B4 B5   JSR &B5B4
     A2B3   10 FB      BPL &A2B0
.LA5B5
     A2B5   20 0D 88   JSR &880D
     A2B8   FA         PLX
     A2B9   68         PLA
     A2BA   85 B4      STA &B4
     A2BC   86 B5      STX &B5
     A2BE   48         PHA
     A2BF   DA         PHX
     A2C0   20 84 8D   JSR &8D84
     A2C3   20 F7 8A   JSR &8AF7
     A2C6   A0 03      LDY #&03
     A2C8   A5 B6      LDA &B6
.LA5CA
     A2CA   D9 34 C2   CMP &C234,Y
     A2CD   D0 53      BNE &A322
     A2CF   B9 13 C3   LDA &C313,Y
     A2D2   88         DEY
     A2D3   10 F5      BPL &A2CA
     A2D5   68         PLA
     A2D6   85 B5      STA &B5
     A2D8   68         PLA
     A2D9   85 B4      STA &B4
     A2DB   20 A8 A0   JSR &A0A8
.LA5DE
     A2DE   A0 00      LDY #&00
.LA5E0
     A2E0   B1 B4      LDA (&B4),Y
     A2E2   C9 2E      CMP #&2E
     A2E4   F0 09      BEQ &A2EF
     A2E6   29 7D      AND #&7D
     A2E8   C9 21      CMP #&21
     A2EA   90 0E      BCC &A2FA
     A2EC   C8         INY
     A2ED   80 F1      BRA &A2E0
.LA5EF
     A2EF   98         TYA
     A2F0   65 B4      ADC &B4
     A2F2   85 B4      STA &B4
     A2F4   90 E8      BCC &A2DE
     A2F6   E6 B5      INC &B5
     A2F8   D0 E4      BNE &A2DE
.LA5FA
     A2FA   A0 09      LDY #&09
.LA5FC
     A2FC   B1 B6      LDA (&B6),Y
     A2FE   29 80      AND #&80
     A300   8D 2B C2   STA &C22B
     A303   20 12 9D   JSR &9D12
     A306   F0 04      BEQ &A30C
     A308   C9 21      CMP #&21
     A30A   B0 02      BCS &A30E
.LA60F
     A30C   A9 0D      LDA #&0D
.LA611
     A30E   0D 2B C2   ORA &C22B
     A311   91 B6      STA (&B6),Y
     A313   88         DEY
     A314   10 E6      BPL &A2FC
     A316   20 46 8D   JSR &8D46
     A319   20 AD A3   JSR &A3AD
     A31C   4C 0D 88   JMP &880D
.LA622
     A31F   4C BD 92   JMP &92BD
.LA625
     A322   AD 37 C2   LDA &C237
     A325   D0 F8      BNE &A31F
     A327   A0 09      LDY #&09
     A329   20 C5 B5   JSR &B5C5
     A32C   20 46 8D   JSR &8D46
     A32F   A0 0A      LDY #&0A
     A331   A2 07      LDX #&07
.LA639
     A333   B1 B6      LDA (&B6),Y
     A335   99 38 C2   STA &C238,Y
     A338   C8         INY
     A339   CA         DEX
     A33A   10 F7      BPL &A333
     A33C   9C 4A C2   STZ &C24A
     A33F   9C 4B C2   STZ &C24B
     A342   9C 4C C2   STZ &C24C
     A345   9C 4D C2   STZ &C24D
     A348   A2 03      LDX #&03
.LA650
     A34A   B1 B6      LDA (&B6),Y
     A34C   99 3C C2   STA &C23C,Y
     A34F   C8         INY
     A350   CA         DEX
     A351   10 F7      BPL &A34A
     A353   A0 00      LDY #&00
.LA65B
     A355   B1 B6      LDA (&B6),Y
     A357   2A         ROL A
     A358   2E 5D C2   ROL &C25D
     A35B   C8         INY
     A35C   C0 04      CPY #&04
     A35E   D0 F5      BNE &A355
     A360   20 A8 A0   JSR &A0A8
     A363   A0 18      LDY #&18
     A365   A2 02      LDX #&02
.LA66D
     A367   B1 B6      LDA (&B6),Y
     A369   9D 3A C2   STA &C23A,X
     A36C   88         DEY
     A36D   CA         DEX
     A36E   10 F7      BPL &A367
     A370   20 0D 88   JSR &880D
     A373   20 BC B5   JSR &B5BC
     A376   20 06 9D   JSR &9D06
     A379   A0 03      LDY #&03
.LA689
     A37B   B1 B6      LDA (&B6),Y
     A37D   0A         ASL A
     A37E   6E 5D C2   ROR &C25D
     A381   6A         ROR A
     A382   91 B6      STA (&B6),Y
     A384   88         DEY
     A385   10 F4      BPL &A37B
     A387   20 61 8C   JSR &8C61
     A38A   20 19 8D   JSR &8D19
     A38D   20 46 8D   JSR &8D46
     A390   20 AD A3   JSR &A3AD
     A393   20 0D 88   JSR &880D
     A396   68         PLA
     A397   85 B5      STA &B5
     A399   68         PLA
     A39A   85 B4      STA &B4
     A39C   20 84 8D   JSR &8D84
     A39F   A2 05      LDX #&05
.LA6AF
     A3A1   9E 34 C2   STZ &C234,X
     A3A4   CA         DEX
     A3A5   10 FA      BPL &A3A1
     A3A7   20 85 8F   JSR &8F85
     A3AA   4C 0D 88   JMP &880D
.LA6BB
     A3AD   20 4F 93   JSR &934F
     A3B0   10 6B      BPL &A41D
.LA6C2
     A3B2   A0 02      LDY #&02
.LA6C4
     A3B4   B9 14 C3   LDA &C314,Y
     A3B7   99 70 C2   STA &C270,Y
     A3BA   88         DEY
     A3BB   10 F7      BPL &A3B4
     A3BD   A0 09      LDY #&09
.LA6CF
     A3BF   20 9A B6   JSR &B69A
     A3C2   99 74 C2   STA &C274,Y
     A3C5   88         DEY
     A3C6   10 F7      BPL &A3BF
     A3C8   A9 74      LDA #&74
     A3CA   85 B4      STA &B4
     A3CC   A9 C2      LDA #&C2
     A3CE   85 B5      STA &B5
     A3D0   20 CE 91   JSR &91CE
     A3D3   A0 09      LDY #&09
.LA6E6
     A3D5   B9 74 C2   LDA &C274,Y
     A3D8   99 CC C8   STA &C8CC,Y
     A3DB   88         DEY
     A3DC   10 F7      BPL &A3D5
     A3DE   A0 02      LDY #&02
.LA6F1
     A3E0   B9 70 C2   LDA &C270,Y
     A3E3   99 D6 C8   STA &C8D6,Y
     A3E6   88         DEY
     A3E7   10 F7      BPL &A3E0
     A3E9   4C 46 8D   JMP &8D46
.LA6FD
     A3EC   AE 17 C3   LDX &C317
     A3EF   E8         INX
     A3F0   D0 2B      BNE &A41D
     A3F2   20 02 82   JSR &8202
     A3F5   A9
     A3F6   4E 6F 20 ...
     A402   00
.LA714
     A403   20 EC A3   JSR &A3EC
     A406   A2 00      LDX #&00
     A408   AD FA C8   LDA &C8FA
.LA71C
     A40B   DD 00 C4   CMP &C400,X
     A40E   D0 0E      BNE &A41E
     A410   DD FA C8   CMP &C8FA,X
     A413   D0 09      BNE &A41E
     A415   E8         INX
     A416   BD 6A 83   LDA &836A,X
     A419   E0 05      CPX #&05
     A41B   D0 EE      BNE &A40B
.RTS13
.LA72E
     A41D   60         RTS
.LA72F
     A41E   20 E2 81   JSR &81E2
     A421   A8
     A422   42 72 6F ...
     A432   00
.LA744
     A433   A6 F4      LDX &F4
     A435   BD F0 0D   LDA &0DF0,X
     A438   85 BB      STA &BB
     A43A   A9 00      LDA #&00
     A43C   85 BA      STA &BA
     A43E   60         RTS
.LA750
     A43F   20 33 A4   JSR &A433
     A442   A0 FD      LDY #&FD
     A444   98         TYA
     A445   18         CLC
.LA757
     A446   71 BA      ADC (&BA),Y
     A448   88         DEY
     A449   D0 FB      BNE &A446
     A44B   71 BA      ADC (&BA),Y
     A44D   A0 FE      LDY #&FE
     A44F   60         RTS
.LA761
     A450   20 3F A4   JSR &A43F
     A453   91 BA      STA (&BA),Y
.LA766
     A455   60         RTS
.LA767
     A456   20 3F A4   JSR &A43F
     A459   D1 BA      CMP (&BA),Y
     A45B   F0 F8      BEQ &A455
.LA76E
     A45D   A9 0F      LDA #&0F
     A45F   8D CE C2   STA &C2CE
     A462   20 02 82   JSR &8202
     A465   AA
     A466   42 61 64 ...
     A46D   00
.LA77F
     A46E   08         PHP
     A46F   48         PHA
     A470   5A         PHY
     A471   DA         PHX
     A472   AD CE C2   LDA &C2CE
     A475   D0 E6      BNE &A45D
     A477   20 8F 8D   JSR &8D8F
     A47A   18         CLC
     A47B   A2 10      LDX #&10
.LA78E
     A47D   BD 04 C2   LDA &C204,X
     A480   29 21      AND #&21
     A482   F0 06      BEQ &A48A
     A484   B0 D7      BCS &A45D
     A486   C9 01      CMP #&01
     A488   D0 D3      BNE &A45D
.LA79B
     A48A   20 3E B5   JSR &B53E
     A48D   10 EE      BPL &A47D
     A48F   90 CC      BCC &A45D
     A491   20 B7 A4   JSR &A4B7
     A494   CD C1 C2   CMP &C2C1
     A497   D0 C4      BNE &A45D
     A499   48         PHA
     A49A   48         PHA
     A49B   A0 05      LDY #&05
     A49D   BA         TSX
.LA7B0
     A49E   BD 03 01   LDA &0103,X
     A4A1   9D 01 01   STA &0101,X
     A4A4   E8         INX
     A4A5   88         DEY
     A4A6   10 F6      BPL &A49E
     A4A8   A9 C1      LDA #&C1
     A4AA   9D 01 01   STA &0101,X
     A4AD   A9 A4      LDA #&A4
     A4AF   9D 02 01   STA &0102,X
     A4B2   FA         PLX
     A4B3   7A         PLY
     A4B4   68         PLA
     A4B5   28         PLP
     A4B6   60         RTS
.LA7C9
     A4B7   A2 78      LDX #&78
     A4B9   8A         TXA
     A4BA   18         CLC
.LA7CD
     A4BB   7D 83 C3   ADC &C383,X
     A4BE   CA         DEX
     A4BF   D0 FA      BNE &A4BB
     A4C1   60         RTS
.LA7D4
     A4C2   08         PHP
     A4C3   48         PHA
     A4C4   5A         PHY
     A4C5   DA         PHX
     A4C6   20 B7 A4   JSR &A4B7
     A4C9   8D C1 C2   STA &C2C1
     A4CC   9C CE C2   STZ &C2CE
     A4CF   9C D5 C2   STZ &C2D5
     A4D2   9C D9 C2   STZ &C2D9
     A4D5   FA         PLX
     A4D6   7A         PLY
     A4D7   68         PLA
     A4D8   28         PLP
     A4D9   60         RTS
.LA7EC
     A4DA   AD 91 C2   LDA &C291
     A4DD   85 B4      STA &B4
     A4DF   AD 92 C2   LDA &C292
     A4E2   85 B5      STA &B5
     A4E4   AD 94 C2   LDA &C294
     A4E7   85 B7      STA &B7
     A4E9   AD 93 C2   LDA &C293
     A4EC   85 B6      STA &B6
     A4EE   A2 0B      LDX #&0B
.LA802
     A4F0   BD A0 86   LDA &86A0,X
     A4F3   9D 14 C2   STA &C214,X
     A4F6   CA         DEX
     A4F7   D0 F7      BNE &A4F0
     A4F9   A0 03      LDY #&03
.LA80D
     A4FB   B9 6C C2   LDA &C26C,Y
     A4FE   99 14 C3   STA &C314,Y
     A501   E0 00      CPX #&00
     A503   F0 03      BEQ &A508
     A505   9D 1A C2   STA &C21A,X
.LA81A
     A508   E8         INX
     A509   88         DEY
     A50A   10 EF      BPL &A4FB
     A50C   4C 6B 81   JMP &816B
.LA821
     A50F   A2 0B      LDX #&0B
.LA823
     A511   BD A0 86   LDA &86A0,X
     A514   9D 14 C2   STA &C214,X
     A517   CA         DEX
     A518   D0 F7      BNE &A511
     A51A   A0 03      LDY #&03
.LA82E
     A51C   B9 70 C2   LDA &C270,Y
     A51F   99 14 C3   STA &C314,Y
     A522   E0 00      CPX #&00
     A524   F0 03      BEQ &A529
     A526   9D 1A C2   STA &C21A,X
.LA83B
     A529   E8         INX
     A52A   88         DEY
     A52B   10 EF      BPL &A51C
     A52D   20 6B 81   JSR &816B
.ldx_ldy_l8331_jsr_l82ae
     A530   A2 96      LDX #&96
     A532   A0 86      LDY #&86
     A534   4C 6F 81   JMP &816F
.LA849
     A537   A9 7F      LDA #&7F
     A539   20 BE B5   JSR &B5BE
     A53C   A9 74      LDA #&74
     A53E   8D 7F C2   STA &C27F
     A541   A9 C2      LDA #&C2
     A543   8D 80 C2   STA &C280
     A546   20 B9 89   JSR &89B9
     A549   F0 03      BEQ &A54E
     A54B   4C CD 89   JMP &89CD
.LA863
     A54E   20 AB 9C   JSR &9CAB
     A551   A5 B4      LDA &B4
     A553   8D 91 C2   STA &C291
     A556   A5 B5      LDA &B5
     A558   8D 92 C2   STA &C292
     A55B   A0 03      LDY #&03
.LA879
     A55D   B9 14 C3   LDA &C314,Y
     A560   99 6C C2   STA &C26C,Y
     A563   88         DEY
     A564   10 F7      BPL &A55D
     A566   20 0D 88   JSR &880D
     A569   A0 03      LDY #&03
.LA887
     A56B   20 B4 B5   JSR &B5B4
     A56E   10 FB      BPL &A56B
     A570   20 A8 A0   JSR &A0A8
     A573   20 AB 85   JSR &85AB
     A576   D0 03      BNE &A57B
     A578   4C C7 85   JMP &85C7
.LA89B
     A57B   20 CE 91   JSR &91CE
     A57E   20 8F 8D   JSR &8D8F
     A581   A0 03      LDY #&03
.LA8A3
     A583   B9 14 C3   LDA &C314,Y
     A586   99 70 C2   STA &C270,Y
     A589   88         DEY
     A58A   10 F7      BPL &A583
     A58C   20 DA A4   JSR &A4DA
.LA8AF
     A58F   20 E3 9C   JSR &9CE3
     A592   88         DEY
     A593   11 B6      ORA (&B6),Y
     A595   10 0F      BPL &A5A6
.LA8B8
     A597   24 FF      BIT &FF
     A599   10 03      BPL &A59E
     A59B   4C 83 81   JMP &8183
.LA8BF
     A59E   20 AD 87   JSR &87AD
     A5A1   F0 EC      BEQ &A58F
     A5A3   4C 0D 88   JMP &880D
.LA8C7
     A5A6   20 AB 9C   JSR &9CAB
     A5A9   20 62 8A   JSR &8A62
     A5AC   A0 16      LDY #&16
     A5AE   B1 B6      LDA (&B6),Y
     A5B0   8D A2 C2   STA &C2A2
     A5B3   C8         INY
     A5B4   B1 B6      LDA (&B6),Y
     A5B6   8D A3 C2   STA &C2A3
     A5B9   C8         INY
     A5BA   B1 B6      LDA (&B6),Y
     A5BC   0D 17 C3   ORA &C317
     A5BF   8D A4 C2   STA &C2A4
     A5C2   A2 00      LDX #&00
     A5C4   A0 03      LDY #&03
.LA8EE
     A5C6   B9 89 C2   LDA &C289,Y
     A5C9   99 8D C2   STA &C28D,Y
     A5CC   8A         TXA
     A5CD   99 89 C2   STA &C289,Y
     A5D0   88         DEY
     A5D1   10 F3      BPL &A5C6
     A5D3   A0 09      LDY #&09
.LA8FD
     A5D5   20 9A B6   JSR &B69A
     A5D8   99 74 C2   STA &C274,Y
     A5DB   88         DEY
     A5DC   10 F7      BPL &A5D5
     A5DE   A9 0D      LDA #&0D
     A5E0   8D 7E C2   STA &C27E
     A5E3   20 0F A5   JSR &A50F
     A5E6   20 06 9D   JSR &9D06
     A5E9   20 13 8D   JSR &8D13
     A5EC   A0 02      LDY #&02
.LA91A
     A5EE   B9 3A C2   LDA &C23A,Y
     A5F1   99 A8 C2   STA &C2A8,Y
     A5F4   B9 3D C2   LDA &C23D,Y
     A5F7   99 A5 C2   STA &C2A5,Y
     A5FA   88         DEY
     A5FB   10 F1      BPL &A5EE
     A5FD   A9 83      LDA #&83
     A5FF   20 F4 FF   JSR &FFF4
     A602   8C 60 C2   STY &C260
     A605   A9 84      LDA #&84
     A607   20 F4 FF   JSR &FFF4
     A60A   98         TYA
     A60B   38         SEC
     A60C   ED 60 C2   SBC &C260
     A60F   8D 61 C2   STA &C261
     A612   A9 08      LDA #&08
     A614   04 CD      TSB &CD
     A616   AD 6F C2   LDA &C26F
     A619   0D A4 C2   ORA &C2A4
     A61C   8D A4 C2   STA &C2A4
     A61F   AD 73 C2   LDA &C273
     A622   0D AA C2   ORA &C2AA
     A625   8D AA C2   STA &C2AA
     A628   AD 17 C3   LDA &C317
     A62B   48         PHA
     A62C   9C 17 C3   STZ &C317
     A62F   20 B6 93   JSR &93B6
     A632   68         PLA
     A633   8D 17 C3   STA &C317
     A636   20 46 8D   JSR &8D46
     A639   20 DA A4   JSR &A4DA
     A63C   4C 97 A5   JMP &A597
.LA96D
     A63F   AE 17 C3   LDX &C317
     A642   E8         INX
     A643   F0 10      BEQ &A655
     A645   20 0D 88   JSR &880D
     A648   A9 FF      LDA #&FF
     A64A   A0 00      LDY #&00
.LA97A
     A64C   C0 00      CPY #&00
     A64E   D0 29      BNE &A679
     A650   A8         TAY
     A651   D0 03      BNE &A656
     A653   A9 08      LDA #&08
.LA983
     A655   60         RTS
.LA984
     A656   20 6E A4   JSR &A46E
     A659   86 C3      STX &C3
     A65B   88         DEY
     A65C   D0 06      BNE &A664
.LA98C
     A65E   A6 C3      LDX &C3
     A660   A9 00      LDA #&00
     A662   A8         TAY
     A663   60         RTS
.LA992
     A664   A2 10      LDX #&10
.LA994
     A666   20 70 A7   JSR &A770
     A669   9E 04 C2   STZ &C204,X
     A66C   20 3E B5   JSR &B53E
     A66F   10 F5      BPL &A666
     A671   EE 04 C2   INC &C204
     A674   20 DB 81   JSR &81DB
     A677   80 E5      BRA &A65E
.LA9A8
     A679   20 6E A4   JSR &A46E
.LA9AB
     A67C   86 C3      STX &C3
     A67E   48         PHA
     A67F   20 53 A9   JSR &A953
     A682   20 DF AD   JSR &ADDF
     A685   68         PLA
     A686   A4 CF      LDY &CF
     A688   AA         TAX
     A689   D0 20      BNE &A6AB
     A68B   A6 C3      LDX &C3
     A68D   B9 7A C3   LDA &C37A,Y
     A690   95 00      STA &00,X
     A692   B9 70 C3   LDA &C370,Y
     A695   95 01      STA &01,X
     A697   B9 66 C3   LDA &C366,Y
     A69A   95 02      STA &02,X
     A69C   B9 5C C3   LDA &C35C,Y
     A69F   95 03      STA &03,X
.LA9D0
     A6A1   20 92 AD   JSR &AD92
     A6A4   A9 00      LDA #&00
     A6A6   A6 C3      LDX &C3
     A6A8   A4 C2      LDY &C2
     A6AA   60         RTS
.LA9DA
     A6AB   CA         DEX
     A6AC   D0 4E      BNE &A6FC
     A6AE   B9 AC C3   LDA &C3AC,Y
     A6B1   10 19      BPL &A6CC
.LA9E2
     A6B3   A6 C3      LDX &C3
     A6B5   20 D4 B5   JSR &B5D4
.chunk_4
     A6B8   99 7A C3   STA &C37A,Y
     A6BB   B5 01      LDA &01,X
     A6BD   99 70 C3   STA &C370,Y
     A6C0   B5 02      LDA &02,X
     A6C2   99 66 C3   STA &C366,Y
     A6C5   B5 03      LDA &03,X
     A6C7   99 5C C3   STA &C35C,Y
     A6CA   80 D5      BRA &A6A1
.LAA16
     A6CC   A6 C3      LDX &C3
     A6CE   A4 CF      LDY &CF
     A6D0   38         SEC
     A6D1   B9 52 C3   LDA &C352,Y
     A6D4   F5 00      SBC &00,X
     A6D6   B9 48 C3   LDA &C348,Y
     A6D9   F5 01      SBC &01,X
     A6DB   B9 3E C3   LDA &C33E,Y
     A6DE   F5 02      SBC &02,X
     A6E0   B9 34 C3   LDA &C334,Y
     A6E3   F5 03      SBC &03,X
     A6E5   90 04      BCC &A6EB
     A6E7   B5 00      LDA &00,X
     A6E9   80 CD      BRA &A6B8
.LAA48
     A6EB   20 FB 81   JSR &81FB
     A6EE   B7
     A6EF   4F 75 74 ...
     A6FB   00
.LAA59
     A6FC   CA         DEX
     A6FD   D0 18      BNE &A717
     A6FF   A6 C3      LDX &C3
     A701   B9 52 C3   LDA &C352,Y
     A704   95 00      STA &00,X
     A706   B9 48 C3   LDA &C348,Y
     A709   95 01      STA &01,X
     A70B   B9 3E C3   LDA &C33E,Y
     A70E   95 02      STA &02,X
     A710   B9 34 C3   LDA &C334,Y
     A713   95 03      STA &03,X
.LAA72
     A715   80 8A      BRA &A6A1
.LAA75
     A717   CA         DEX
     A718   D0 27      BNE &A741
     A71A   A6 C3      LDX &C3
     A71C   B9 AC C3   LDA &C3AC,Y
     A71F   30 03      BMI &A724
     A721   4C 0E AD   JMP &AD0E
.LAA82
     A724   20 D4 B5   JSR &B5D4
     A727   99 52 C3   STA &C352,Y
     A72A   B5 01      LDA &01,X
     A72C   99 48 C3   STA &C348,Y
     A72F   B5 02      LDA &02,X
     A731   99 3E C3   STA &C33E,Y
     A734   B5 03      LDA &03,X
     A736   99 34 C3   STA &C334,Y
     A739   20 6B A9   JSR &A96B
     A73C   B0 D7      BCS &A715
     A73E   4C B3 A6   JMP &A6B3
.LAAB9
     A741   A2 10      LDX #&10
.LAABB
     A743   BD 04 C2   LDA &C204,X
     A746   4A         LSR A
     A747   29 0F      AND #&0F
     A749   C5 CF      CMP &CF
     A74B   D0 0B      BNE &A758
     A74D   20 70 A7   JSR &A770
     A750   BD 04 C2   LDA &C204,X
     A753   29 01      AND #&01
     A755   9D 04 C2   STA &C204,X
.LAAD0
     A758   20 3E B5   JSR &B53E
     A75B   10 E6      BPL &A743
     A75D   4C 5E A6   JMP &A65E
.LAAD9
     A760   C9 09      CMP #&09
     A762   08         PHP
     A763   20 1D B8   JSR &B81D
     A766   28         PLP
     A767   20 0D B7   JSR &B70D
     A76A   4C 3B B8   JMP &B83B
.LAB03
     A76D   20 2E A9   JSR &A92E
.LAB06
     A770   20 0B A8   JSR &A80B
     A773   BD 04 C2   LDA &C204,X
     A776   C9 C0      CMP #&C0
     A778   90 6B      BCC &A7E5
     A77A   8A         TXA
     A77B   4A         LSR A
     A77C   4A         LSR A
     A77D   69 C9      ADC #&C9
     A77F   85 BD      STA &BD
     A781   64 BC      STZ &BC
     A783   BD 04 C2   LDA &C204,X
     A786   29 BF      AND #&BF
     A788   9D 04 C2   STA &C204,X
     A78B   29 1E      AND #&1E
     A78D   6A         ROR A
     A78E   09 30      ORA #&30
     A790   8D D4 C2   STA &C2D4
     A793   BD 01 C2   LDA &C201,X
     A796   8D D0 C2   STA &C2D0
     A799   BD 02 C2   LDA &C202,X
     A79C   8D D1 C2   STA &C2D1
     A79F   BD 03 C2   LDA &C203,X
     A7A2   8D D2 C2   STA &C2D2
     A7A5   20 3D B1   JSR &B13D
     A7A8   20 7C 80   JSR &807C
     A7AB   86 C1      STX &C1
.LAB5E
     A7AD   A6 C1      LDX &C1
     A7AF   A9 0A      LDA #&0A
     A7B1   20 60 A7   JSR &A760
     A7B4   A0 00      LDY #&00
     A7B6   80 09      BRA &A7C1
.ResultCodes
     A7B8   12
     A7B9   06
     A7BA   2F
     A7BB   02
     A7BC   10
     A7BD   28
     A7BE   11
     A7BF   19
     A7C0   03
.LAB76
     A7C1   A5 B2      LDA &B2
     A7C3   48         PHA
     A7C4   A5 B3      LDA &B3
     A7C6   48         PHA
     A7C7   A5 BC      LDA &BC
     A7C9   85 B2      STA &B2
     A7CB   A5 BD      LDA &BD
     A7CD   85 B3      STA &B3
     A7CF   20 D8 B6   JSR &B6D8
     A7D2   20 0E BB   JSR &BB0E
     A7D5   20 EF BA   JSR &BAEF
     A7D8   68         PLA
     A7D9   85 B3      STA &B3
     A7DB   68         PLA
     A7DC   85 B2      STA &B2
     A7DE   A9 01      LDA #&01
     A7E0   04 CD      TSB &CD
     A7E2   88         DEY
.LAB86
     A7E3   A6 C1      LDX &C1
.LAB88
     A7E5   60         RTS
.LAB89
     A7E6   60         RTS
.UpdateDrive
     A7E7   A5 85      LDA &85
     A7E9   0D 17 C3   ORA &C317
     A7EC   85 85      STA &85
     A7EE   8D 33 C3   STA &C333
     A7F1   A9 7F      LDA #&7F
     A7F3   60         RTS
.LAB98
     A7F4   A9 05      LDA #&05
     A7F6   60         RTS
.LAB9B
     A7F7   5A         PHY
     A7F8   9C 43 FC   STZ &FC43
     A7FB   A9 01      LDA #&01
     A7FD   14 CD      TRB &CD
     A7FF   AD 40 FC   LDA &FC40
     A802   0D 40 FC   ORA &FC40
     A805   8D 31 C3   STA &C331
     A808   4C 68 9A   JMP &9A68
.LABB4
     A80B   AD 31 C3   LDA &C331
     A80E   F0 29      BEQ &A839
     A810   9C 31 C3   STZ &C331
     A813   AE D4 C2   LDX &C2D4
     A816   20 04 82   JSR &8204
     A819   CA
     A81A   44 61 74 ...
     A82C   00
.LABD8
     A82D   8A         TXA
     A82E   8E A1 C2   STX &C2A1
     A831   4A         LSR A
     A832   4A         LSR A
     A833   69 C9      ADC #&C9
     A835   85 BF      STA &BF
     A837   64 BE      STZ &BE
.LABE6
     A839   60         RTS
.LABE7
     A83A   A2 10      LDX #&10
     A83C   8E 95 C2   STX &C295
     A83F   A8         TAY
.LABED
     A840   BD 04 C2   LDA &C204,X
     A843   29 01      AND #&01
     A845   F0 03      BEQ &A84A
     A847   8E 95 C2   STX &C295
.LABF7
     A84A   BD 04 C2   LDA &C204,X
     A84D   10 67      BPL &A8B6
     A84F   BD 01 C2   LDA &C201,X
     A852   CD 96 C2   CMP &C296
     A855   D0 5F      BNE &A8B6
     A857   BD 02 C2   LDA &C202,X
     A85A   CD 97 C2   CMP &C297
     A85D   D0 57      BNE &A8B6
     A85F   BD 03 C2   LDA &C203,X
     A862   CD 98 C2   CMP &C298
     A865   D0 4F      BNE &A8B6
     A867   20 2D A8   JSR &A82D
.LAC17
     A86A   98         TYA
     A86B   4A         LSR A
     A86C   29 40      AND #&40
     A86E   1D 04 C2   ORA &C204,X
     A871   6A         ROR A
     A872   29 E0      AND #&E0
     A874   05 CF      ORA &CF
     A876   08         PHP
     A877   18         CLC
     A878   2A         ROL A
     A879   9D 04 C2   STA &C204,X
     A87C   28         PLP
     A87D   90 17      BCC &A896
     A87F   A0 10      LDY #&10
.LAC2E
     A881   B9 04 C2   LDA &C204,Y
     A884   D0 07      BNE &A88D
     A886   A9 01      LDA #&01
     A888   99 04 C2   STA &C204,Y
     A88B   D0 26      BNE &A8B3
.LAC3A
     A88D   88         DEY
     A88E   88         DEY
     A88F   88         DEY
     A890   88         DEY
     A891   10 EE      BPL &A881
     A893   20 B6 9C   JSR &9CB6
.LAC4A
     A896   E8         INX
     A897   E8         INX
     A898   E8         INX
     A899   E8         INX
     A89A   E0 11      CPX #&11
     A89C   90 02      BCC &A8A0
     A89E   A2 00      LDX #&00
.LAC54
     A8A0   BD 04 C2   LDA &C204,X
     A8A3   4A         LSR A
     A8A4   F0 0D      BEQ &A8B3
     A8A6   90 0B      BCC &A8B3
     A8A8   18         CLC
     A8A9   2A         ROL A
     A8AA   9D 04 C2   STA &C204,X
     A8AD   20 4B A9   JSR &A94B
     A8B0   20 B6 9C   JSR &9CB6
.LAC6E
     A8B3   4C 6D A7   JMP &A76D
.LAC71
     A8B6   20 3E B5   JSR &B53E
     A8B9   30 02      BMI &A8BD
     A8BB   80 83      BRA &A840
.LAC7A
     A8BD   AE 95 C2   LDX &C295
     A8C0   AD 96 C2   LDA &C296
     A8C3   9D 01 C2   STA &C201,X
     A8C6   8D D0 C2   STA &C2D0
     A8C9   AD 97 C2   LDA &C297
     A8CC   9D 02 C2   STA &C202,X
     A8CF   8D D1 C2   STA &C2D1
     A8D2   AD 98 C2   LDA &C298
     A8D5   9D 03 C2   STA &C203,X
     A8D8   8D D2 C2   STA &C2D2
     A8DB   20 2D A8   JSR &A82D
     A8DE   AD 98 C2   LDA &C298
     A8E1   20 3D B1   JSR &B13D
     A8E4   84 B1      STY &B1
     A8E6   86 B0      STX &B0
     A8E8   20 7C 80   JSR &807C
.LACA8
     A8EB   A6 B0      LDX &B0
     A8ED   BD 03 C2   LDA &C203,X
     A8F0   10 07      BPL &A8F9
.LACBA
     A8F2   C6 CE      DEC &CE
     A8F4   10 F5      BPL &A8EB
     A8F6   4C 74 81   JMP &8174
.LACC1
     A8F9   A9 08      LDA #&08
     A8FB   20 60 A7   JSR &A760
     A8FE   A0 00      LDY #&00
.LACCD
     A900   A5 B2      LDA &B2
     A902   48         PHA
     A903   A5 B3      LDA &B3
     A905   48         PHA
     A906   A5 BE      LDA &BE
     A908   85 B2      STA &B2
     A90A   A5 BF      LDA &BF
     A90C   85 B3      STA &B3
     A90E   20 D0 B6   JSR &B6D0
     A911   20 72 BA   JSR &BA72
     A914   20 2E BA   JSR &BA2E
     A917   68         PLA
     A918   85 B3      STA &B3
     A91A   68         PLA
     A91B   85 B2      STA &B2
.LACD5
     A91D   20 50 81   JSR &8150
     A920   D0 D0      BNE &A8F2
.LACDA
     A922   A6 B0      LDX &B0
     A924   A4 B1      LDY &B1
     A926   A9 81      LDA #&81
     A928   9D 04 C2   STA &C204,X
     A92B   4C 6A A8   JMP &A86A
.LACE6
     A92E   A2 10      LDX #&10
.LACE8
     A930   BD 04 C2   LDA &C204,X
     A933   29 01      AND #&01
     A935   D0 33      BNE &A96A
     A937   20 3E B5   JSR &B53E
     A93A   10 F4      BPL &A930
     A93C   4C 5D A4   JMP &A45D
.LACF8
     A93F   20 FB 81   JSR &81FB
     A942   DE
     A943   43 68 61 ...
     A94A   00
.LAD04
     A94B   20 3E B5   JSR &B53E
     A94E   10 02      BPL &A952
     A950   A2 10      LDX #&10
.LAD0C
     A952   60         RTS
.LAD0D
     A953   84 C2      STY &C2
     A955   8C D5 C2   STY &C2D5
     A958   C0 3A      CPY #&3A
     A95A   B0 E3      BCS &A93F
     A95C   98         TYA
     A95D   38         SEC
     A95E   E9 30      SBC #&30
     A960   90 DD      BCC &A93F
     A962   85 CF      STA &CF
     A964   AA         TAX
     A965   BD AC C3   LDA &C3AC,X
     A968   F0 D5      BEQ &A93F
.LAD24
     A96A   60         RTS
.LAD25
     A96B   A6 CF      LDX &CF
     A96D   BD 34 C3   LDA &C334,X
     A970   DD 5C C3   CMP &C35C,X
     A973   D0 19      BNE &A98E
     A975   BD 3E C3   LDA &C33E,X
     A978   DD 66 C3   CMP &C366,X
     A97B   D0 11      BNE &A98E
     A97D   BD 48 C3   LDA &C348,X
     A980   DD 70 C3   CMP &C370,X
     A983   D0 09      BNE &A98E
     A985   BD 52 C3   LDA &C352,X
     A988   DD 7A C3   CMP &C37A,X
     A98B   D0 01      BNE &A98E
     A98D   18         CLC
.LAD48
     A98E   60         RTS
.LAD49
     A98F   A4 B4      LDY &B4
     A991   20 53 A9   JSR &A953
     A994   6A         ROR A
     A995   B0 09      BCS &A9A0
     A997   20 6E A4   JSR &A46E
     A99A   20 DF AD   JSR &ADDF
     A99D   20 6B A9   JSR &A96B
.LAD5A
     A9A0   A2 00      LDX #&00
     A9A2   B0 01      BCS &A9A5
     A9A4   CA         DEX
.LAD5F
     A9A5   A4 B5      LDY &B5
     A9A7   60         RTS
.LAD62
     A9A8   BD AC C3   LDA &C3AC,X
     A9AB   29 C8      AND #&C8
     A9AD   9D AC C3   STA &C3AC,X
     A9B0   20 FB 81   JSR &81FB
     A9B3   DF
     A9B4   45 4F 46 
     A9B7   00
.LAD72
     A9B8   86 C3      STX &C3
     A9BA   20 53 A9   JSR &A953
     A9BD   6A         ROR A
     A9BE   B0 22      BCS &A9E2
     A9C0   29 04      AND #&04
     A9C2   D0 E4      BNE &A9A8
     A9C4   20 6B A9   JSR &A96B
     A9C7   B0 19      BCS &A9E2
     A9C9   D0 DD      BNE &A9A8
     A9CB   20 6E A4   JSR &A46E
     A9CE   A6 CF      LDX &CF
     A9D0   BD AC C3   LDA &C3AC,X
     A9D3   29 C0      AND #&C0
     A9D5   09 08      ORA #&08
     A9D7   9D AC C3   STA &C3AC,X
     A9DA   A4 C2      LDY &C2
     A9DC   A6 C3      LDX &C3
     A9DE   38         SEC
     A9DF   A9 FE      LDA #&FE
     A9E1   60         RTS
.LAD9C
     A9E2   A6 CF      LDX &CF
     A9E4   20 F2 B5   JSR &B5F2
     A9E7   A9 40      LDA #&40
     A9E9   20 AD B6   JSR &B6AD
     A9EC   A9 00      LDA #&00
     A9EE   8D CF C2   STA &C2CF
     A9F1   20 76 AD   JSR &AD76
     A9F4   B1 BE      LDA (&BE),Y
     A9F6   A4 C2      LDY &C2
     A9F8   A6 C3      LDX &C3
     A9FA   18         CLC
     A9FB   60         RTS
.LADD4
     A9FC   A0 02      LDY #&02
.LADD6
     A9FE   B9 14 C3   LDA &C314,Y
     AA01   99 30 C2   STA &C230,Y
     AA04   88         DEY
     AA05   10 F7      BPL &A9FE
     AA07   AD 17 C3   LDA &C317
     AA0A   8D 33 C2   STA &C233
     AA0D   A6 CF      LDX &CF
     AA0F   BD B6 C3   LDA &C3B6,X
     AA12   29 E0      AND #&E0
     AA14   8D 2F C2   STA &C22F
     AA17   BD E8 C3   LDA &C3E8,X
     AA1A   8D 2C C2   STA &C22C
     AA1D   BD DE C3   LDA &C3DE,X
     AA20   8D 2D C2   STA &C22D
     AA23   BD D4 C3   LDA &C3D4,X
     AA26   8D 2E C2   STA &C22E
     AA29   20 0D 88   JSR &880D
     AA2C   A0 02      LDY #&02
.LAE06
     AA2E   20 0C 9D   JSR &9D0C
     AA31   10 FB      BPL &AA2E
     AA33   AD 33 C2   LDA &C233
     AA36   8D 2F C2   STA &C22F
     AA39   20 BA B0   JSR &B0BA
     AA3C   A6 CF      LDX &CF
     AA3E   BD CA C3   LDA &C3CA,X
     AA41   8D 34 C2   STA &C234
     AA44   BD C0 C3   LDA &C3C0,X
     AA47   8D 35 C2   STA &C235
     AA4A   BD B6 C3   LDA &C3B6,X
     AA4D   29 1F      AND #&1F
     AA4F   8D 36 C2   STA &C236
     AA52   A9 05      LDA #&05
     AA54   85 B8      STA &B8
     AA56   A9 C4      LDA #&C4
     AA58   85 B9      STA &B9
     AA5A   A6 CF      LDX &CF
.LAE38
     AA5C   A0 00      LDY #&00
     AA5E   B1 B8      LDA (&B8),Y
     AA60   D0 06      BNE &AA68
     AA62   9D AC C3   STA &C3AC,X
     AA65   4C 5D A4   JMP &A45D
.LAE44
     AA68   A0 19      LDY #&19
     AA6A   B1 B8      LDA (&B8),Y
     AA6C   DD F2 C3   CMP &C3F2,X
     AA6F   D0 0E      BNE &AA7F
     AA71   88         DEY
.LAE4E
     AA72   B1 B8      LDA (&B8),Y
     AA74   D9 1E C2   CMP &C21E,Y
     AA77   D0 06      BNE &AA7F
     AA79   88         DEY
     AA7A   C0 16      CPY #&16
     AA7C   B0 F4      BCS &AA72
     AA7E   60         RTS
.LAE5B
     AA7F   A5 B8      LDA &B8
     AA81   18         CLC
     AA82   69 1A      ADC #&1A
     AA84   85 B8      STA &B8
     AA86   90 D4      BCC &AA5C
     AA88   E6 B9      INC &B9
     AA8A   B0 D0      BCS &AA5C
.LAE68
     AA8C   9C B5 C2   STZ &C2B5
.LAE6D
     AA8F   AD 2F C2   LDA &C22F
     AA92   8D BF C2   STA &C2BF
     AA95   A2 02      LDX #&02
.LAE75
     AA97   BD 2C C2   LDA &C22C,X
     AA9A   9D BC C2   STA &C2BC,X
     AA9D   CA         DEX
     AA9E   10 F7      BPL &AA97
     AAA0   20 64 B6   JSR &B664
     AAA3   A6 CF      LDX &CF
     AAA5   BD 84 C3   LDA &C384,X
     AAA8   CD 9D C2   CMP &C29D
     AAAB   D0 16      BNE &AAC3
     AAAD   BD 8E C3   LDA &C38E,X
     AAB0   CD 9C C2   CMP &C29C
     AAB3   D0 0E      BNE &AAC3
     AAB5   BD 98 C3   LDA &C398,X
     AAB8   CD 9B C2   CMP &C29B
     AABB   D0 06      BNE &AAC3
     AABD   BD A2 C3   LDA &C3A2,X
     AAC0   CD 9A C2   CMP &C29A
.LAEA6
     AAC3   90 28      BCC &AAED
     AAC5   BD 34 C3   LDA &C334,X
     AAC8   CD 9D C2   CMP &C29D
     AACB   D0 1B      BNE &AAE8
     AACD   BD 3E C3   LDA &C33E,X
     AAD0   CD 9C C2   CMP &C29C
     AAD3   D0 13      BNE &AAE8
     AAD5   BD 48 C3   LDA &C348,X
     AAD8   CD 9B C2   CMP &C29B
     AADB   D0 0B      BNE &AAE8
     AADD   BD 52 C3   LDA &C352,X
     AAE0   CD 9A C2   CMP &C29A
     AAE3   D0 03      BNE &AAE8
.LAEC8
     AAE5   4C EE AC   JMP &ACEE
.LAECB
     AAE8   B0 FB      BCS &AAE5
     AAEA   4C FC AB   JMP &ABFC
.LAED0
     AAED   20 FC A9   JSR &A9FC
     AAF0   20 B6 B6   JSR &B6B6
     AAF3   69 00      ADC #&00
     AAF5   8D 37 C2   STA &C237
     AAF8   BD 8E C3   LDA &C38E,X
     AAFB   69 00      ADC #&00
     AAFD   8D 38 C2   STA &C238
     AB00   BD 84 C3   LDA &C384,X
     AB03   69 00      ADC #&00
     AB05   8D 39 C2   STA &C239
     AB08   20 6F 83   JSR &836F
     AB0B   9C 3D C2   STZ &C23D
     AB0E   9C 3E C2   STZ &C23E
     AB11   9C 3F C2   STZ &C23F
     AB14   AE FE C1   LDX &C1FE
.LAEFF
     AB17   AD 3F C2   LDA &C23F
     AB1A   DD FF C0   CMP &C0FF,X
     AB1D   90 14      BCC &AB33
     AB1F   D0 21      BNE &AB42
     AB21   AD 3E C2   LDA &C23E
     AB24   DD FE C0   CMP &C0FE,X
     AB27   90 0A      BCC &AB33
     AB29   D0 17      BNE &AB42
     AB2B   AD 3D C2   LDA &C23D
     AB2E   DD FD C0   CMP &C0FD,X
     AB31   B0 0F      BCS &AB42
.LAF1B
     AB33   A0 02      LDY #&02
.LAF1D
     AB35   BD FF C0   LDA &C0FF,X
     AB38   99 3D C2   STA &C23D,Y
     AB3B   CA         DEX
     AB3C   88         DEY
     AB3D   10 F6      BPL &AB35
     AB3F   8A         TXA
     AB40   80 03      BRA &AB45
.LAF2A
     AB42   CA         DEX
     AB43   CA         DEX
     AB44   CA         DEX
.LAF2D
     AB45   D0 D0      BNE &AB17
     AB47   A2 03      LDX #&03
.LAF31
     AB49   BD 3C C2   LDA &C23C,X
     AB4C   DD 9A C2   CMP &C29A,X
     AB4F   D0 06      BNE &AB57
     AB51   CA         DEX
     AB52   D0 F5      BNE &AB49
     AB54   EC 9A C2   CPX &C29A
.LAF3F
     AB57   AD 9C C2   LDA &C29C
     AB5A   AC 9D C2   LDY &C29D
     AB5D   1A         INC A
     AB5E   D0 06      BNE &AB66
     AB60   C8         INY
     AB61   D0 03      BNE &AB66
     AB63   4C E9 84   JMP &84E9
.LAF4E
     AB66   90 0E      BCC &AB76
     AB68   CC 3F C2   CPY &C23F
     AB6B   90 09      BCC &AB76
     AB6D   D0 10      BNE &AB7F
     AB6F   CD 3E C2   CMP &C23E
     AB72   90 02      BCC &AB76
     AB74   D0 09      BNE &AB7F
.LAF5E
     AB76   8C 3F C2   STY &C23F
     AB79   8D 3E C2   STA &C23E
     AB7C   9C 3D C2   STZ &C23D
.LAF67
     AB7F   20 C5 84   JSR &84C5
     AB82   A0 12      LDY #&12
     AB84   A9 00      LDA #&00
     AB86   A6 CF      LDX &CF
     AB88   91 B8      STA (&B8),Y
     AB8A   9D A2 C3   STA &C3A2,X
     AB8D   C8         INY
     AB8E   AD 3D C2   LDA &C23D
     AB91   91 B8      STA (&B8),Y
     AB93   9D 98 C3   STA &C398,X
     AB96   AD 3E C2   LDA &C23E
     AB99   C8         INY
     AB9A   91 B8      STA (&B8),Y
     AB9C   9D 8E C3   STA &C38E,X
     AB9F   AD 3F C2   LDA &C23F
     ABA2   C8         INY
     ABA3   91 B8      STA (&B8),Y
     ABA5   9D 84 C3   STA &C384,X
     ABA8   AD 3A C2   LDA &C23A
     ABAB   C8         INY
     ABAC   91 B8      STA (&B8),Y
     ABAE   9D CA C3   STA &C3CA,X
     ABB1   AD 3B C2   LDA &C23B
     ABB4   C8         INY
     ABB5   91 B8      STA (&B8),Y
     ABB7   9D C0 C3   STA &C3C0,X
     ABBA   AD 3C C2   LDA &C23C
     ABBD   C8         INY
     ABBE   91 B8      STA (&B8),Y
     ABC0   0D 17 C3   ORA &C317
     ABC3   9D B6 C3   STA &C3B6,X
     ABC6   20 46 8D   JSR &8D46
     ABC9   A9 08      LDA #&08
     ABCB   14 CD      TRB &CD
     ABCD   A9 C4      LDA #&C4
     ABCF   8D 60 C2   STA &C260
     ABD2   A9 09      LDA #&09
     ABD4   8D 61 C2   STA &C261
     ABD7   A2 00      LDX #&00
     ABD9   A0 02      LDY #&02
.LAFC3
     ABDB   B9 34 C2   LDA &C234,Y
     ABDE   99 A2 C2   STA &C2A2,Y
     ABE1   D9 3A C2   CMP &C23A,Y
     ABE4   F0 04      BEQ &ABEA
     ABE6   E8         INX
     ABE7   B9 3A C2   LDA &C23A,Y
.LAFD2
     ABEA   99 A8 C2   STA &C2A8,Y
     ABED   B9 37 C2   LDA &C237,Y
     ABF0   99 A5 C2   STA &C2A5,Y
     ABF3   88         DEY
     ABF4   10 E5      BPL &ABDB
     ABF6   8A         TXA
     ABF7   F0 03      BEQ &ABFC
     ABF9   20 B6 93   JSR &93B6
.LAFE4
     ABFC   AD B5 C2   LDA &C2B5
     ABFF   F0 03      BEQ &AC04
     AC01   4C D1 AC   JMP &ACD1
.LAFEC
     AC04   A6 CF      LDX &CF
     AC06   18         CLC
     AC07   BD 48 C3   LDA &C348,X
     AC0A   7D CA C3   ADC &C3CA,X
     AC0D   8D 96 C2   STA &C296
     AC10   BD 3E C3   LDA &C33E,X
     AC13   7D C0 C3   ADC &C3C0,X
     AC16   8D 97 C2   STA &C297
     AC19   BD 34 C3   LDA &C334,X
     AC1C   7D B6 C3   ADC &C3B6,X
     AC1F   8D 98 C2   STA &C298
     AC22   A9 C0      LDA #&C0
     AC24   20 3A A8   JSR &A83A
     AC27   A6 CF      LDX &CF
     AC29   BC 52 C3   LDY &C352,X
     AC2C   A9 00      LDA #&00
.LB016
     AC2E   91 BE      STA (&BE),Y
     AC30   C8         INY
     AC31   D0 FB      BNE &AC2E
     AC33   AD 9B C2   LDA &C29B
     AC36   18         CLC
     AC37   7D CA C3   ADC &C3CA,X
     AC3A   8D 34 C2   STA &C234
     AC3D   AD 9C C2   LDA &C29C
     AC40   7D C0 C3   ADC &C3C0,X
     AC43   8D 35 C2   STA &C235
     AC46   AD 9D C2   LDA &C29D
     AC49   7D B6 C3   ADC &C3B6,X
     AC4C   8D 36 C2   STA &C236
     AC4F   AD 9A C2   LDA &C29A
     AC52   D0 13      BNE &AC67
     AC54   AD 34 C2   LDA &C234
     AC57   D0 0B      BNE &AC64
     AC59   AD 35 C2   LDA &C235
     AC5C   D0 03      BNE &AC61
     AC5E   CE 36 C2   DEC &C236
.LB049
     AC61   CE 35 C2   DEC &C235
.LB04C
     AC64   CE 34 C2   DEC &C234
.LB04F
     AC67   AD 34 C2   LDA &C234
     AC6A   CD 96 C2   CMP &C296
     AC6D   D0 10      BNE &AC7F
     AC6F   AD 35 C2   LDA &C235
     AC72   CD 97 C2   CMP &C297
     AC75   D0 08      BNE &AC7F
     AC77   AD 36 C2   LDA &C236
     AC7A   CD 98 C2   CMP &C298
     AC7D   F0 52      BEQ &ACD1
.LB06A
     AC7F   20 DB 81   JSR &81DB
     AC82   EE 96 C2   INC &C296
     AC85   D0 08      BNE &AC8F
     AC87   EE 97 C2   INC &C297
     AC8A   D0 03      BNE &AC8F
     AC8C   EE 98 C2   INC &C298
.LB07A
     AC8F   A9 40      LDA #&40
     AC91   20 3A A8   JSR &A83A
     AC94   A0 00      LDY #&00
     AC96   98         TYA
.LB082
     AC97   91 BE      STA (&BE),Y
     AC99   C8         INY
     AC9A   D0 FB      BNE &AC97
.LB087
     AC9C   AE A1 C2   LDX &C2A1
     AC9F   A9 C0      LDA #&C0
     ACA1   1D 04 C2   ORA &C204,X
     ACA4   9D 04 C2   STA &C204,X
     ACA7   20 70 A7   JSR &A770
     ACAA   AD 34 C2   LDA &C234
     ACAD   DD 01 C2   CMP &C201,X
     ACB0   D0 10      BNE &ACC2
     ACB2   AD 35 C2   LDA &C235
     ACB5   DD 02 C2   CMP &C202,X
     ACB8   D0 08      BNE &ACC2
     ACBA   AD 36 C2   LDA &C236
     ACBD   DD 03 C2   CMP &C203,X
     ACC0   F0 0F      BEQ &ACD1
.LB0AD
     ACC2   FE 01 C2   INC &C201,X
     ACC5   D0 D5      BNE &AC9C
     ACC7   FE 02 C2   INC &C202,X
     ACCA   D0 D0      BNE &AC9C
     ACCC   FE 03 C2   INC &C203,X
     ACCF   80 CB      BRA &AC9C
.LB0BD
     ACD1   A6 CF      LDX &CF
     ACD3   AD 9A C2   LDA &C29A
     ACD6   9D 52 C3   STA &C352,X
     ACD9   AD 9B C2   LDA &C29B
     ACDC   9D 48 C3   STA &C348,X
     ACDF   AD 9C C2   LDA &C29C
     ACE2   9D 3E C3   STA &C33E,X
     ACE5   AD 9D C2   LDA &C29D
     ACE8   9D 34 C3   STA &C334,X
     ACEB   20 0D 88   JSR &880D
.LB0DA
     ACEE   AD BF C2   LDA &C2BF
     ACF1   8D 2F C2   STA &C22F
     ACF4   A2 02      LDX #&02
.LB0E2
     ACF6   BD BC C2   LDA &C2BC,X
     ACF9   9D 2C C2   STA &C22C,X
     ACFC   CA         DEX
     ACFD   10 F7      BPL &ACF6
     ACFF   60         RTS
.LB0EC
     AD00   86 C3      STX &C3
     AD02   48         PHA
     AD03   20 53 A9   JSR &A953
     AD06   A0 00      LDY #&00
     AD08   8C CF C2   STY &C2CF
     AD0B   A8         TAY
     AD0C   30 18      BMI &AD26
.LB0FA
     AD0E   20 FB 81   JSR &81FB
     AD11   C1
     AD12   4E 6F 74 ...
     AD25   00
.LB112
     AD26   BD AC C3   LDA &C3AC,X
     AD29   29 07      AND #&07
     AD2B   C9 06      CMP #&06
     AD2D   B0 32      BCS &AD61
     AD2F   C9 03      CMP #&03
     AD31   F0 2E      BEQ &AD61
     AD33   BD 7A C3   LDA &C37A,X
     AD36   38         SEC
     AD37   69 00      ADC #&00
     AD39   8D 9A C2   STA &C29A
     AD3C   BD 70 C3   LDA &C370,X
     AD3F   69 00      ADC #&00
     AD41   8D 9B C2   STA &C29B
     AD44   BD 66 C3   LDA &C366,X
     AD47   69 00      ADC #&00
     AD49   8D 9C C2   STA &C29C
     AD4C   BD 5C C3   LDA &C35C,X
     AD4F   69 00      ADC #&00
     AD51   8D 9D C2   STA &C29D
     AD54   68         PLA
     AD55   20 6E A4   JSR &A46E
     AD58   48         PHA
     AD59   CE CF C2   DEC &C2CF
     AD5C   20 8C AA   JSR &AA8C
     AD5F   A6 CF      LDX &CF
.LB14D
     AD61   20 F2 B5   JSR &B5F2
     AD64   A9 C0      LDA #&C0
     AD66   20 AD B6   JSR &B6AD
     AD69   68         PLA
     AD6A   91 BE      STA (&BE),Y
     AD6C   48         PHA
     AD6D   20 76 AD   JSR &AD76
     AD70   68         PLA
     AD71   A4 C2      LDY &C2
     AD73   A6 C3      LDX &C3
.LB17F
     AD75   60         RTS
.LB180
     AD76   A6 CF      LDX &CF
     AD78   FE 7A C3   INC &C37A,X
     AD7B   D0 F8      BNE &AD75
     AD7D   2C CF C2   BIT &C2CF
     AD80   30 03      BMI &AD85
     AD82   20 6E A4   JSR &A46E
.LB18F
     AD85   FE 70 C3   INC &C370,X
     AD88   D0 08      BNE &AD92
     AD8A   FE 66 C3   INC &C366,X
     AD8D   D0 03      BNE &AD92
     AD8F   FE 5C C3   INC &C35C,X
.LB19C
     AD92   20 DF AD   JSR &ADDF
     AD95   48         PHA
     AD96   38         SEC
     AD97   BD 70 C3   LDA &C370,X
     AD9A   FD 48 C3   SBC &C348,X
     AD9D   BD 66 C3   LDA &C366,X
     ADA0   FD 3E C3   SBC &C33E,X
     ADA3   BD 5C C3   LDA &C35C,X
     ADA6   FD 34 C3   SBC &C334,X
     ADA9   90 29      BCC &ADD4
     ADAB   BD 7A C3   LDA &C37A,X
     ADAE   DD 52 C3   CMP &C352,X
     ADB1   D0 04      BNE &ADB7
     ADB3   68         PLA
     ADB4   09 04      ORA #&04
     ADB6   48         PHA
.LB1C1
     ADB7   38         SEC
     ADB8   BD 48 C3   LDA &C348,X
     ADBB   FD 98 C3   SBC &C398,X
     ADBE   BD 3E C3   LDA &C33E,X
     ADC1   FD 8E C3   SBC &C38E,X
     ADC4   BD 34 C3   LDA &C334,X
     ADC7   FD 84 C3   SBC &C384,X
     ADCA   90 03      BCC &ADCF
     ADCC   68         PLA
     ADCD   D0 08      BNE &ADD7
.LB1D9
     ADCF   68         PLA
     ADD0   09 02      ORA #&02
     ADD2   D0 03      BNE &ADD7
.LB1DE
     ADD4   68         PLA
     ADD5   09 03      ORA #&03
.LB1E1
     ADD7   30 02      BMI &ADDB
     ADD9   29 F9      AND #&F9
.LB1E5
     ADDB   9D AC C3   STA &C3AC,X
     ADDE   60         RTS
.LB1E9
     ADDF   A6 CF      LDX &CF
     ADE1   BD AC C3   LDA &C3AC,X
     ADE4   48         PHA
     ADE5   29 04      AND #&04
     ADE7   F0 18      BEQ &AE01
     ADE9   BD 7A C3   LDA &C37A,X
     ADEC   9D 52 C3   STA &C352,X
     ADEF   BD 70 C3   LDA &C370,X
     ADF2   9D 48 C3   STA &C348,X
     ADF5   BD 66 C3   LDA &C366,X
     ADF8   9D 3E C3   STA &C33E,X
     ADFB   BD 5C C3   LDA &C35C,X
     ADFE   9D 34 C3   STA &C334,X
.LB20B
     AE01   68         PLA
     AE02   29 C0      AND #&C0
     AE04   D0 D5      BNE &ADDB
.LB210
     AE06   A9 00      LDA #&00
     AE08   A8         TAY
.LB213
     AE09   20 6E A4   JSR &A46E
     AE0C   8E 40 C2   STX &C240
     AE0F   86 B4      STX &B4
     AE11   86 C5      STX &C5
     AE13   84 C4      STY &C4
     AE15   8C 41 C2   STY &C241
     AE18   84 B5      STY &B5
     AE1A   29 C0      AND #&C0
     AE1C   A0 00      LDY #&00
     AE1E   8C D5 C2   STY &C2D5
     AE21   A8         TAY
     AE22   D0 03      BNE &AE27
     AE24   4C C9 AF   JMP &AFC9
.LB231
     AE27   AD 32 C3   LDA &C332
     AE2A   F0 08      BEQ &AE34
     AE2C   A0 00      LDY #&00
     AE2E   8C 32 C3   STY &C332
     AE31   A4 B5      LDY &B5
     AE33   60         RTS
.LB23E
     AE34   A2 09      LDX #&09
.LB240
     AE36   BD AC C3   LDA &C3AC,X
     AE39   F0 1B      BEQ &AE56
     AE3B   CA         DEX
     AE3C   10 F8      BPL &AE36
     AE3E   20 FB 81   JSR &81FB
     AE41   C0
     AE42   54 6F 6F ...
     AE55   00
.LB260
     AE56   86 CF      STX &CF
     AE58   8C A0 C2   STY &C2A0
     AE5B   98         TYA
     AE5C   10 03      BPL &AE61
     AE5E   4C 2C AF   JMP &AF2C
.LB26B
     AE61   20 84 8D   JSR &8D84
     AE64   F0 05      BEQ &AE6B
     AE66   A9 00      LDA #&00
     AE68   4C 24 AF   JMP &AF24
.LB275
     AE6B   A2 09      LDX #&09
.LB277
     AE6D   BD AC C3   LDA &C3AC,X
     AE70   10 29      BPL &AE9B
     AE72   20 4E B6   JSR &B64E
     AE75   D0 24      BNE &AE9B
     AE77   BD E8 C3   LDA &C3E8,X
     AE7A   CD 14 C3   CMP &C314
     AE7D   D0 1C      BNE &AE9B
     AE7F   BD DE C3   LDA &C3DE,X
     AE82   CD 15 C3   CMP &C315
     AE85   D0 14      BNE &AE9B
     AE87   BD D4 C3   LDA &C3D4,X
     AE8A   CD 16 C3   CMP &C316
     AE8D   D0 0C      BNE &AE9B
     AE8F   A0 19      LDY #&19
     AE91   B1 B6      LDA (&B6),Y
     AE93   DD F2 C3   CMP &C3F2,X
     AE96   D0 03      BNE &AE9B
     AE98   4C 35 8B   JMP &8B35
.LB2AA
     AE9B   CA         DEX
     AE9C   10 CF      BPL &AE6D
     AE9E   20 B8 B1   JSR &B1B8
     AEA1   30 03      BMI &AEA6
     AEA3   4C F3 89   JMP &89F3
.LB2B6
     AEA6   A0 12      LDY #&12
     AEA8   A6 CF      LDX &CF
     AEAA   B1 B6      LDA (&B6),Y
     AEAC   9D 52 C3   STA &C352,X
     AEAF   C8         INY
     AEB0   B1 B6      LDA (&B6),Y
     AEB2   9D 48 C3   STA &C348,X
     AEB5   C8         INY
     AEB6   B1 B6      LDA (&B6),Y
     AEB8   9D 3E C3   STA &C33E,X
     AEBB   C8         INY
     AEBC   B1 B6      LDA (&B6),Y
     AEBE   9D 34 C3   STA &C334,X
.LB2D1
     AEC1   A0 12      LDY #&12
     AEC3   A6 CF      LDX &CF
     AEC5   B1 B6      LDA (&B6),Y
     AEC7   9D A2 C3   STA &C3A2,X
     AECA   C8         INY
     AECB   B1 B6      LDA (&B6),Y
     AECD   9D 98 C3   STA &C398,X
     AED0   C8         INY
     AED1   B1 B6      LDA (&B6),Y
     AED3   9D 8E C3   STA &C38E,X
     AED6   C8         INY
     AED7   B1 B6      LDA (&B6),Y
     AED9   9D 84 C3   STA &C384,X
     AEDC   C8         INY
     AEDD   B1 B6      LDA (&B6),Y
     AEDF   9D CA C3   STA &C3CA,X
     AEE2   C8         INY
     AEE3   B1 B6      LDA (&B6),Y
     AEE5   9D C0 C3   STA &C3C0,X
     AEE8   C8         INY
     AEE9   B1 B6      LDA (&B6),Y
     AEEB   0D 17 C3   ORA &C317
     AEEE   9D B6 C3   STA &C3B6,X
     AEF1   C8         INY
     AEF2   B1 B6      LDA (&B6),Y
     AEF4   9D F2 C3   STA &C3F2,X
     AEF7   AD 14 C3   LDA &C314
     AEFA   9D E8 C3   STA &C3E8,X
     AEFD   AD 15 C3   LDA &C315
     AF00   9D DE C3   STA &C3DE,X
     AF03   AD 16 C3   LDA &C316
     AF06   9D D4 C3   STA &C3D4,X
     AF09   9E 7A C3   STZ &C37A,X
     AF0C   9E 70 C3   STZ &C370,X
     AF0F   9E 66 C3   STZ &C366,X
     AF12   9E 5C C3   STZ &C35C,X
     AF15   AD A0 C2   LDA &C2A0
     AF18   9D AC C3   STA &C3AC,X
     AF1B   8A         TXA
     AF1C   18         CLC
     AF1D   69 30      ADC #&30
     AF1F   48         PHA
     AF20   20 92 AD   JSR &AD92
     AF23   68         PLA
.LB336
     AF24   20 0D 88   JSR &880D
     AF27   A6 C5      LDX &C5
     AF29   A4 C4      LDY &C4
     AF2B   60         RTS
.LB33E
     AF2C   2C A0 C2   BIT &C2A0
     AF2F   50 18      BVC &AF49
     AF31   20 84 8D   JSR &8D84
     AF34   08         PHP
     AF35   A9 00      LDA #&00
     AF37   28         PLP
     AF38   D0 EA      BNE &AF24
     AF3A   20 08 8B   JSR &8B08
     AF3D   A0 01      LDY #&01
     AF3F   B1 B6      LDA (&B6),Y
     AF41   30 03      BMI &AF46
.LB355
     AF43   4C F3 89   JMP &89F3
.LB358
     AF46   4C 6B AE   JMP &AE6B
.LB35B
     AF49   20 9F 8B   JSR &8B9F
     AF4C   20 84 8D   JSR &8D84
     AF4F   D0 0B      BNE &AF5C
     AF51   20 F7 8A   JSR &8AF7
     AF54   A0 01      LDY #&01
     AF56   B1 B6      LDA (&B6),Y
     AF58   10 E9      BPL &AF43
     AF5A   80 5C      BRA &AFB8
.LB36F
     AF5C   A2 0F      LDX #&0F
.LB373
     AF5E   9E 42 C2   STZ &C242,X
     AF61   CA         DEX
     AF62   10 FA      BPL &AF5E
     AF64   AE FE C1   LDX &C1FE
     AF67   A9 00      LDA #&00
.LB37E
     AF69   1D FE C0   ORA &C0FE,X
     AF6C   1D FF C0   ORA &C0FF,X
     AF6F   BC FD C0   LDY &C0FD,X
     AF72   CC 4F C2   CPY &C24F
     AF75   90 03      BCC &AF7A
     AF77   8C 4F C2   STY &C24F
.LB38F
     AF7A   CA         DEX
     AF7B   CA         DEX
     AF7C   CA         DEX
     AF7D   D0 EA      BNE &AF69
     AF7F   A8         TAY
     AF80   F0 07      BEQ &AF89
     AF82   8E 4F C2   STX &C24F
     AF85   E8         INX
     AF86   8E 50 C2   STX &C250
.LB39E
     AF89   A9 FF      LDA #&FF
     AF8B   8D 46 C2   STA &C246
     AF8E   8D 47 C2   STA &C247
     AF91   8D 48 C2   STA &C248
     AF94   8D 49 C2   STA &C249
     AF97   A2 40      LDX #&40
     AF99   86 B8      STX &B8
     AF9B   A0 C2      LDY #&C2
     AF9D   84 B9      STY &B9
     AF9F   20 0D 88   JSR &880D
     AFA2   20 10 8D   JSR &8D10
     AFA5   20 46 8D   JSR &8D46
     AFA8   20 0A 88   JSR &880A
     AFAB   AD 40 C2   LDA &C240
     AFAE   85 B4      STA &B4
     AFB0   AD 41 C2   LDA &C241
     AFB3   85 B5      STA &B5
     AFB5   20 84 8D   JSR &8D84
.LB3CD
     AFB8   A6 CF      LDX &CF
     AFBA   9E 52 C3   STZ &C352,X
     AFBD   9E 48 C3   STZ &C348,X
     AFC0   9E 3E C3   STZ &C33E,X
     AFC3   9E 34 C3   STZ &C334,X
     AFC6   4C C1 AE   JMP &AEC1
.LB3E0
     AFC9   A4 C4      LDY &C4
     AFCB   D0 22      BNE &AFEF
     AFCD   A2 09      LDX #&09
.LB3E6
     AFCF   BD AC C3   LDA &C3AC,X
     AFD2   D0 0C      BNE &AFE0
.LB3EB
     AFD4   CA         DEX
     AFD5   10 F8      BPL &AFCF
     AFD7   20 DB 81   JSR &81DB
     AFDA   A9 00      LDA #&00
     AFDC   A6 C5      LDX &C5
     AFDE   A8         TAY
     AFDF   60         RTS
.LB3F7
     AFE0   8A         TXA
     AFE1   18         CLC
     AFE2   69 30      ADC #&30
     AFE4   85 B5      STA &B5
     AFE6   86 CF      STX &CF
     AFE8   20 F2 AF   JSR &AFF2
     AFEB   A6 CF      LDX &CF
     AFED   10 E5      BPL &AFD4
.LB406
     AFEF   20 53 A9   JSR &A953
.LB409
     AFF2   20 DF AD   JSR &ADDF
     AFF5   BC AC C3   LDY &C3AC,X
     AFF8   9E AC C3   STZ &C3AC,X
     AFFB   98         TYA
     AFFC   10 20      BPL &B01E
     AFFE   BD 52 C3   LDA &C352,X
     B001   DD A2 C3   CMP &C3A2,X
     B004   D0 25      BNE &B02B
     B006   BD 48 C3   LDA &C348,X
     B009   DD 98 C3   CMP &C398,X
     B00C   D0 1D      BNE &B02B
     B00E   BD 3E C3   LDA &C33E,X
     B011   DD 8E C3   CMP &C38E,X
     B014   D0 15      BNE &B02B
     B016   BD 34 C3   LDA &C334,X
     B019   DD 84 C3   CMP &C384,X
     B01C   D0 0D      BNE &B02B
.LB435
     B01E   20 41 A7   JSR &A741
     B021   20 0D 88   JSR &880D
     B024   A9 00      LDA #&00
     B026   A4 C4      LDY &C4
     B028   A6 C5      LDX &C5
     B02A   60         RTS
.LB442
     B02B   20 FC A9   JSR &A9FC
     B02E   BD 52 C3   LDA &C352,X
     B031   C9 01      CMP #&01
     B033   AD 34 C2   LDA &C234
     B036   7D 48 C3   ADC &C348,X
     B039   8D 34 C2   STA &C234
     B03C   AD 35 C2   LDA &C235
     B03F   7D 3E C3   ADC &C33E,X
     B042   8D 35 C2   STA &C235
     B045   AD 36 C2   LDA &C236
     B048   7D 34 C3   ADC &C334,X
     B04B   8D 36 C2   STA &C236
     B04E   20 B6 B6   JSR &B6B6
     B051   FD 48 C3   SBC &C348,X
     B054   8D 37 C2   STA &C237
     B057   BD 8E C3   LDA &C38E,X
     B05A   FD 3E C3   SBC &C33E,X
     B05D   8D 38 C2   STA &C238
     B060   BD 84 C3   LDA &C384,X
     B063   FD 34 C3   SBC &C334,X
     B066   8D 39 C2   STA &C239
     B069   BD 52 C3   LDA &C352,X
     B06C   D0 0D      BNE &B07B
     B06E   EE 37 C2   INC &C237
     B071   D0 08      BNE &B07B
     B073   EE 38 C2   INC &C238
     B076   D0 03      BNE &B07B
     B078   EE 39 C2   INC &C239
.LB497
     B07B   BD 52 C3   LDA &C352,X
     B07E   A0 12      LDY #&12
     B080   91 B8      STA (&B8),Y
     B082   BD 48 C3   LDA &C348,X
     B085   C8         INY
     B086   91 B8      STA (&B8),Y
     B088   BD 3E C3   LDA &C33E,X
     B08B   C8         INY
     B08C   91 B8      STA (&B8),Y
     B08E   BD 34 C3   LDA &C334,X
     B091   C8         INY
     B092   91 B8      STA (&B8),Y
     B094   20 6F 83   JSR &836F
     B097   20 46 8D   JSR &8D46
     B09A   80 82      BRA &B01E
.LB4B9
     B09C   A2 09      LDX #&09
.LB4BB
     B09E   BD AC C3   LDA &C3AC,X
     B0A1   F0 05      BEQ &B0A8
     B0A3   20 4E B6   JSR &B64E
     B0A6   F0 12      BEQ &B0BA
.LB4CA
     B0A8   CA         DEX
     B0A9   10 F3      BPL &B09E
.LB4CD
     B0AB   20 6D B6   JSR &B66D
     B0AE   AD FB C1   LDA &C1FB
     B0B1   9D 21 C3   STA &C321,X
     B0B4   AD FC C1   LDA &C1FC
     B0B7   9D 22 C3   STA &C322,X
.LB4DF
     B0BA   20 E8 B0   JSR &B0E8
.LB4E2
     B0BD   20 6D B6   JSR &B66D
     B0C0   AD FB C1   LDA &C1FB
     B0C3   DD 21 C3   CMP &C321,X
     B0C6   D0 0F      BNE &B0D7
     B0C8   AD FC C1   LDA &C1FC
     B0CB   DD 22 C3   CMP &C322,X
     B0CE   D0 07      BNE &B0D7
     B0D0   20 31 B1   JSR &B131
     B0D3   8D C2 C2   STA &C2C2
     B0D6   60         RTS
.LB4FF
     B0D7   20 FB 81   JSR &81FB
     B0DA   C8
     B0DB   44 69 73 ...
     B0E7   00
.LB510
     B0E8   A9 01      LDA #&01
     B0EA   A2 C8      LDX #&C8
     B0EC   A0 C2      LDY #&C2
     B0EE   20 F1 FF   JSR &FFF1
     B0F1   A2 00      LDX #&00
     B0F3   A0 04      LDY #&04
     B0F5   38         SEC
.LB51E
     B0F6   BD C8 C2   LDA &C2C8,X
     B0F9   48         PHA
     B0FA   FD C3 C2   SBC &C2C3,X
     B0FD   9D C8 C2   STA &C2C8,X
     B100   68         PLA
     B101   9D C3 C2   STA &C2C3,X
     B104   E8         INX
     B105   88         DEY
     B106   10 EE      BPL &B0F6
     B108   AD CC C2   LDA &C2CC
     B10B   0D CB C2   ORA &C2CB
     B10E   0D CA C2   ORA &C2CA
     B111   D0 07      BNE &B11A
     B113   AD C9 C2   LDA &C2C9
     B116   C9 02      CMP #&02
     B118   90 03      BCC &B11D
.LB542
     B11A   8C C2 C2   STY &C2C2
.LB545
     B11D   60         RTS
.LB546
     B11E   20 E8 B0   JSR &B0E8
     B121   20 6D B6   JSR &B66D
     B124   20 31 B1   JSR &B131
     B127   4D C2 C2   EOR &C2C2
     B12A   F0 F1      BEQ &B11D
     B12C   20 30 A5   JSR &A530
     B12F   80 8C      BRA &B0BD
.LB560
     B131   A9 FF      LDA #&FF
     B133   18         CLC
.LB563
     B134   2A         ROL A
     B135   CA         DEX
     B136   CA         DEX
     B137   10 FB      BPL &B134
     B139   2D C2 C2   AND &C2C2
     B13C   60         RTS
.LB56C
     B13D   29 E0      AND #&E0
     B13F   8D CD C2   STA &C2CD
     B142   DA         PHX
     B143   5A         PHY
     B144   20 E8 B0   JSR &B0E8
     B147   AD CD C2   LDA &C2CD
     B14A   20 8F B1   JSR &B18F
     B14D   20 31 B1   JSR &B131
     B150   4D C2 C2   EOR &C2C2
     B153   F0 37      BEQ &B18C
     B155   AD CD C2   LDA &C2CD
     B158   AA         TAX
     B159   48         PHA
     B15A   AD 17 C3   LDA &C317
     B15D   8D CD C2   STA &C2CD
     B160   AC 2F C2   LDY &C22F
     B163   C0 FF      CPY #&FF
     B165   D0 06      BNE &B16D
     B167   8D 2F C2   STA &C22F
     B16A   8C CD C2   STY &C2CD
.LB59C
     B16D   8E 17 C3   STX &C317
     B170   20 1E B1   JSR &B11E
     B173   AC CD C2   LDY &C2CD
     B176   8C 17 C3   STY &C317
     B179   C0 FF      CPY #&FF
     B17B   D0 06      BNE &B183
     B17D   20 C1 9C   JSR &9CC1
     B180   8C 2F C2   STY &C22F
.LB5B5
     B183   68         PLA
     B184   CD 17 C3   CMP &C317
     B187   F0 03      BEQ &B18C
     B189   20 30 A5   JSR &A530
.LB5C2
     B18C   7A         PLY
     B18D   FA         PLX
     B18E   60         RTS
.LB5C5
     B18F   20 ED 88   JSR &88ED
     B192   AA         TAX
     B193   60         RTS
.LB5CB
     B194   20 6E A4   JSR &A46E
     B197   8D B4 C2   STA &C2B4
     B19A   8D B5 C2   STA &C2B5
     B19D   84 C7      STY &C7
     B19F   86 C6      STX &C6
     B1A1   A0 01      LDY #&01
     B1A3   A2 03      LDX #&03
.LB5DC
     B1A5   B1 C6      LDA (&C6),Y
     B1A7   99 B7 C2   STA &C2B7,Y
     B1AA   C8         INY
     B1AB   CA         DEX
     B1AC   10 F7      BPL &B1A5
     B1AE   AD B4 C2   LDA &C2B4
     B1B1   C9 05      CMP #&05
     B1B3   90 08      BCC &B1BD
     B1B5   4C 66 B4   JMP &B466
.ldy_0_lda_b6_y
     B1B8   A0 00      LDY #&00
     B1BA   B1 B6      LDA (&B6),Y
.LB5EF
     B1BC   60         RTS
.LB5F0
     B1BD   A8         TAY
     B1BE   F0 FC      BEQ &B1BC
     B1C0   A0 00      LDY #&00
     B1C2   B1 C6      LDA (&C6),Y
     B1C4   A8         TAY
     B1C5   20 53 A9   JSR &A953
     B1C8   08         PHP
     B1C9   20 DF AD   JSR &ADDF
     B1CC   A6 CF      LDX &CF
     B1CE   BD B6 C3   LDA &C3B6,X
     B1D1   20 3D B1   JSR &B13D
     B1D4   28         PLP
     B1D5   30 08      BMI &B1DF
     B1D7   20 18 9D   JSR &9D18
     B1DA   B0 03      BCS &B1DF
     B1DC   4C 0E AD   JMP &AD0E
.LB614
     B1DF   AD B4 C2   LDA &C2B4
     B1E2   29 01      AND #&01
     B1E4   F0 0E      BEQ &B1F4
     B1E6   A0 0C      LDY #&0C
     B1E8   A2 03      LDX #&03
.LB61F
     B1EA   B1 C6      LDA (&C6),Y
     B1EC   95 C8      STA &C8,X
     B1EE   88         DEY
     B1EF   CA         DEX
     B1F0   10 F8      BPL &B1EA
     B1F2   A9 01      LDA #&01
.LB629
     B1F4   A4 C2      LDY &C2
     B1F6   A2 C8      LDX #&C8
     B1F8   20 7C A6   JSR &A67C
     B1FB   18         CLC
     B1FC   A2 03      LDX #&03
     B1FE   A0 05      LDY #&05
.LB635
     B200   B1 C6      LDA (&C6),Y
     B202   79 C3 00   ADC &00C3,Y
     B205   99 95 C2   STA &C295,Y
     B208   C8         INY
     B209   CA         DEX
     B20A   10 F4      BPL &B200
     B20C   20 18 9D   JSR &9D18
     B20F   8D B5 C2   STA &C2B5
     B212   B0 03      BCS &B217
     B214   20 8F AA   JSR &AA8F
.LB64E
     B217   A0 09      LDY #&09
     B219   A6 CF      LDX &CF
     B21B   AD 9A C2   LDA &C29A
     B21E   9D 7A C3   STA &C37A,X
     B221   91 C6      STA (&C6),Y
     B223   C8         INY
     B224   AD 9B C2   LDA &C29B
     B227   9D 70 C3   STA &C370,X
     B22A   91 C6      STA (&C6),Y
     B22C   C8         INY
     B22D   AD 9C C2   LDA &C29C
     B230   9D 66 C3   STA &C366,X
     B233   91 C6      STA (&C6),Y
     B235   C8         INY
     B236   AD 9D C2   LDA &C29D
     B239   9D 5C C3   STA &C35C,X
     B23C   91 C6      STA (&C6),Y
     B23E   20 18 9D   JSR &9D18
     B241   B0 13      BCS &B256
.LB67C
     B243   A2 03      LDX #&03
     B245   A0 05      LDY #&05
.LB680
     B247   B1 C6      LDA (&C6),Y
     B249   99 3B C2   STA &C23B,Y
     B24C   A9 00      LDA #&00
     B24E   91 C6      STA (&C6),Y
     B250   C8         INY
     B251   CA         DEX
     B252   10 F3      BPL &B247
     B254   80 6E      BRA &B2C4
.LB690
     B256   20 6B A9   JSR &A96B
     B259   B0 E8      BCS &B243
     B25B   F0 E6      BEQ &B243
     B25D   9C B5 C2   STZ &C2B5
     B260   A6 CF      LDX &CF
     B262   38         SEC
     B263   BD 52 C3   LDA &C352,X
     B266   E5 C8      SBC &C8
     B268   8D 40 C2   STA &C240
     B26B   BD 48 C3   LDA &C348,X
     B26E   E5 C9      SBC &C9
     B270   8D 41 C2   STA &C241
     B273   BD 3E C3   LDA &C33E,X
     B276   E5 CA      SBC &CA
     B278   8D 42 C2   STA &C242
     B27B   BD 34 C3   LDA &C334,X
     B27E   E5 CB      SBC &CB
     B280   8D 43 C2   STA &C243
     B283   A2 03      LDX #&03
     B285   A0 05      LDY #&05
     B287   38         SEC
.LB6C2
     B288   B1 C6      LDA (&C6),Y
     B28A   F9 3B C2   SBC &C23B,Y
     B28D   91 C6      STA (&C6),Y
     B28F   C8         INY
     B290   CA         DEX
     B291   10 F5      BPL &B288
     B293   A6 CF      LDX &CF
     B295   BD 52 C3   LDA &C352,X
     B298   8D 9A C2   STA &C29A
     B29B   9D 7A C3   STA &C37A,X
     B29E   91 C6      STA (&C6),Y
     B2A0   C8         INY
     B2A1   BD 48 C3   LDA &C348,X
     B2A4   8D 9B C2   STA &C29B
     B2A7   9D 70 C3   STA &C370,X
     B2AA   91 C6      STA (&C6),Y
     B2AC   C8         INY
     B2AD   BD 3E C3   LDA &C33E,X
     B2B0   8D 9C C2   STA &C29C
     B2B3   9D 66 C3   STA &C366,X
     B2B6   91 C6      STA (&C6),Y
     B2B8   C8         INY
     B2B9   BD 34 C3   LDA &C334,X
     B2BC   8D 9D C2   STA &C29D
     B2BF   9D 5C C3   STA &C35C,X
     B2C2   91 C6      STA (&C6),Y
.LB6FE
     B2C4   A0 01      LDY #&01
     B2C6   A2 03      LDX #&03
     B2C8   18         CLC
.LB703
     B2C9   B9 3F C2   LDA &C23F,Y
     B2CC   71 C6      ADC (&C6),Y
     B2CE   91 C6      STA (&C6),Y
     B2D0   C8         INY
     B2D1   CA         DEX
     B2D2   10 F5      BPL &B2C9
     B2D4   A5 C8      LDA &C8
     B2D6   D0 02      BNE &B2DA
     B2D8   80 7F      BRA &B359
.LB715
     B2DA   A6 CF      LDX &CF
     B2DC   18         CLC
     B2DD   BD CA C3   LDA &C3CA,X
     B2E0   65 C9      ADC &C9
     B2E2   8D 96 C2   STA &C296
     B2E5   BD C0 C3   LDA &C3C0,X
     B2E8   65 CA      ADC &CA
     B2EA   8D 97 C2   STA &C297
     B2ED   BD B6 C3   LDA &C3B6,X
     B2F0   65 CB      ADC &CB
     B2F2   20 31 B6   JSR &B631
     B2F5   A5 C8      LDA &C8
     B2F7   8D B6 C2   STA &C2B6
     B2FA   9C B7 C2   STZ &C2B7
     B2FD   A2 02      LDX #&02
.LB745
     B2FF   BD 9B C2   LDA &C29B,X
     B302   D5 C9      CMP &C9,X
     B304   D0 16      BNE &B31C
     B306   CA         DEX
     B307   10 F6      BPL &B2FF
     B309   20 1E 9D   JSR &9D1E
.LB758
     B30C   20 0D 88   JSR &880D
     B30F   20 92 AD   JSR &AD92
.LB75E
     B312   A9 00      LDA #&00
     B314   CD B5 C2   CMP &C2B5
     B317   A6 C6      LDX &C6
     B319   A4 C7      LDY &C7
     B31B   60         RTS
.LB768
     B31C   20 43 B5   JSR &B543
     B31F   A9 00      LDA #&00
     B321   38         SEC
     B322   ED B6 C2   SBC &C2B6
     B325   8D B6 C2   STA &C2B6
     B328   18         CLC
     B329   6D B8 C2   ADC &C2B8
     B32C   8D B8 C2   STA &C2B8
     B32F   90 0D      BCC &B33E
     B331   EE B9 C2   INC &C2B9
     B334   D0 08      BNE &B33E
     B336   EE BA C2   INC &C2BA
     B339   D0 03      BNE &B33E
     B33B   EE BB C2   INC &C2BB
.LB78A
     B33E   38         SEC
     B33F   AD 40 C2   LDA &C240
     B342   ED B6 C2   SBC &C2B6
     B345   8D 40 C2   STA &C240
     B348   B0 0F      BCS &B359
     B34A   A0 01      LDY #&01
.LB798
     B34C   B9 40 C2   LDA &C240,Y
     B34F   E9 00      SBC #&00
     B351   99 40 C2   STA &C240,Y
     B354   B0 03      BCS &B359
     B356   C8         INY
     B357   D0 F3      BNE &B34C
.LB7A5
     B359   AD 41 C2   LDA &C241
     B35C   0D 42 C2   ORA &C242
     B35F   0D 43 C2   ORA &C243
     B362   F0 70      BEQ &B3D4
.LB7B3
     B364   A9 01      LDA #&01
     B366   8D 15 C2   STA &C215
     B369   A0 03      LDY #&03
.LB7BA
     B36B   B9 B8 C2   LDA &C2B8,Y
     B36E   99 16 C2   STA &C216,Y
     B371   88         DEY
     B372   10 F7      BPL &B36B
     B374   A9 02      LDA #&02
     B376   CD B4 C2   CMP &C2B4
     B379   A9 02      LDA #&02
     B37B   2A         ROL A
     B37C   2A         ROL A
     B37D   8D 1A C2   STA &C21A
     B380   A6 CF      LDX &CF
     B382   A5 C8      LDA &C8
     B384   C9 01      CMP #&01
     B386   BD CA C3   LDA &C3CA,X
     B389   65 C9      ADC &C9
     B38B   8D 1D C2   STA &C21D
     B38E   BD C0 C3   LDA &C3C0,X
     B391   65 CA      ADC &CA
     B393   8D 1C C2   STA &C21C
     B396   BD B6 C3   LDA &C3B6,X
     B399   65 CB      ADC &CB
     B39B   8D 1B C2   STA &C21B
     B39E   A0 04      LDY #&04
.LB7EF
     B3A0   B9 13 C3   LDA &C313,Y
     B3A3   99 2B C2   STA &C22B,Y
     B3A6   88         DEY
     B3A7   D0 F7      BNE &B3A0
     B3A9   8C 17 C3   STY &C317
     B3AC   8C 1E C2   STY &C21E
     B3AF   8C 1F C2   STY &C21F
     B3B2   8C 20 C2   STY &C220
     B3B5   18         CLC
     B3B6   A2 02      LDX #&02
.LB807
     B3B8   B9 41 C2   LDA &C241,Y
     B3BB   99 21 C2   STA &C221,Y
     B3BE   79 B9 C2   ADC &C2B9,Y
     B3C1   99 B9 C2   STA &C2B9,Y
     B3C4   C8         INY
     B3C5   CA         DEX
     B3C6   10 F0      BPL &B3B8
     B3C8   20 41 A7   JSR &A741
     B3CB   20 73 88   JSR &8873
     B3CE   20 C1 9C   JSR &9CC1
     B3D1   20 64 B6   JSR &B664
.LB82B
     B3D4   AD 9A C2   LDA &C29A
     B3D7   D0 03      BNE &B3DC
     B3D9   4C 0C B3   JMP &B30C
.LB833
     B3DC   A6 CF      LDX &CF
     B3DE   18         CLC
     B3DF   BD CA C3   LDA &C3CA,X
     B3E2   6D 9B C2   ADC &C29B
     B3E5   8D 96 C2   STA &C296
     B3E8   BD C0 C3   LDA &C3C0,X
     B3EB   6D 9C C2   ADC &C29C
     B3EE   8D 97 C2   STA &C297
     B3F1   BD B6 C3   LDA &C3B6,X
     B3F4   6D 9D C2   ADC &C29D
     B3F7   20 31 B6   JSR &B631
     B3FA   9C B6 C2   STZ &C2B6
     B3FD   20 1E 9D   JSR &9D1E
     B400   4C 0C B3   JMP &B30C
.LB86B
     B403   24 CD      BIT &CD
     B405   10 1E      BPL &B425
     B407   20 3F B6   JSR &B63F
     B40A   90 06      BCC &B412
     B40C   AD BB C2   LDA &C2BB
     B40F   1A         INC A
     B410   F0 13      BEQ &B425
.LB885
     B412   08         PHP
     B413   78         SEI
     B414   20 32 80   JSR &8032
     B417   A9 40      LDA #&40
     B419   04 CD      TSB &CD
     B41B   A9 01      LDA #&01
     B41D   A2 B8      LDX #&B8
     B41F   A0 C2      LDY #&C2
     B421   20 06 04   JSR &0406
     B424   28         PLP
.LB898
     B425   64 BD      STZ &BD
     B427   AD B8 C2   LDA &C2B8
     B42A   85 B2      STA &B2
     B42C   AD B9 C2   LDA &C2B9
     B42F   85 B3      STA &B3
     B431   60         RTS
.LB8A5
     B432   24 CD      BIT &CD
     B434   50 04      BVC &B43A
     B436   8D E5 FE   STA &FEE5
     B439   60         RTS
.LB8AD
     B43A   84 BC      STY &BC
     B43C   A4 BD      LDY &BD
     B43E   91 B2      STA (&B2),Y
     B440   E6 BD      INC &BD
     B442   D0 02      BNE &B446
     B444   E6 B3      INC &B3
.LB8B9
     B446   A4 BC      LDY &BC
     B448   60         RTS
.LB8BC
     B449   A9 0A      LDA #&0A
     B44B   20 32 B4   JSR &B432
     B44E   38         SEC
     B44F   A2 09      LDX #&09
     B451   A0 FF      LDY #&FF
.LB8C6
     B453   C8         INY
     B454   90 09      BCC &B45F
     B456   20 39 92   JSR &9239
     B459   C9 21      CMP #&21
     B45B   B0 02      BCS &B45F
     B45D   A9 20      LDA #&20
.LB8D3
     B45F   20 32 B4   JSR &B432
     B462   CA         DEX
     B463   10 EE      BPL &B453
     B465   60         RTS
.LB8DA
     B466   E9 05      SBC #&05
     B468   A8         TAY
     B469   F0 0B      BEQ &B476
     B46B   88         DEY
     B46C   F0 3E      BEQ &B4AC
     B46E   88         DEY
     B46F   F0 58      BEQ &B4C9
     B471   88         DEY
     B472   D0 32      BNE &B4A6
     B474   80 69      BRA &B4DF
.LB8EB
     B476   20 03 B4   JSR &B403
     B479   A0 FF      LDY #&FF
.LB8F0
     B47B   20 BF B6   JSR &B6BF
     B47E   90 04      BCC &B484
     B480   C0 13      CPY #&13
     B482   D0 F7      BNE &B47B
.LB8FE
     B484   98         TYA
     B485   20 32 B4   JSR &B432
     B488   A0 FF      LDY #&FF
.LB904
     B48A   20 BF B6   JSR &B6BF
     B48D   90 07      BCC &B496
     B48F   20 32 B4   JSR &B432
     B492   C0 13      CPY #&13
     B494   D0 F4      BNE &B48A
.LB915
     B496   AD FD C1   LDA &C1FD
     B499   20 32 B4   JSR &B432
     B49C   AD 17 C3   LDA &C317
     B49F   0A         ASL A
     B4A0   2A         ROL A
     B4A1   2A         ROL A
     B4A2   2A         ROL A
     B4A3   20 32 B4   JSR &B432
.LB925
     B4A6   20 3A 80   JSR &803A
     B4A9   4C 12 B3   JMP &B312
.LB92B
     B4AC   20 C8 B6   JSR &B6C8
     B4AF   AD 17 C3   LDA &C317
     B4B2   20 C0 B4   JSR &B4C0
     B4B5   64 B4      STZ &B4
     B4B7   A9 C3      LDA #&C3
     B4B9   85 B5      STA &B5
     B4BB   20 49 B4   JSR &B449
     B4BE   30 E6      BMI &B4A6
.LB946
     B4C0   0A         ASL A
     B4C1   2A         ROL A
     B4C2   2A         ROL A
     B4C3   2A         ROL A
     B4C4   69 30      ADC #&30
     B4C6   4C 32 B4   JMP &B432
.LB94F
     B4C9   20 C8 B6   JSR &B6C8
     B4CC   AD 1B C3   LDA &C31B
     B4CF   20 C0 B4   JSR &B4C0
     B4D2   A9 0A      LDA #&0A
     B4D4   85 B4      STA &B4
     B4D6   A9 C3      LDA #&C3
     B4D8   85 B5      STA &B5
     B4DA   20 49 B4   JSR &B449
     B4DD   30 C7      BMI &B4A6
.LB96A
     B4DF   20 03 B4   JSR &B403
     B4E2   A0 00      LDY #&00
     B4E4   8C B5 C2   STY &C2B5
     B4E7   AD FA C8   LDA &C8FA
     B4EA   91 C6      STA (&C6),Y
     B4EC   A0 05      LDY #&05
     B4EE   B1 C6      LDA (&C6),Y
     B4F0   85 B0      STA &B0
     B4F2   F0 B2      BEQ &B4A6
     B4F4   A0 09      LDY #&09
     B4F6   B1 C6      LDA (&C6),Y
     B4F8   85 B1      STA &B1
     B4FA   C9 2F      CMP #&2F
     B4FC   B0 A8      BCS &B4A6
     B4FE   AA         TAX
     B4FF   18         CLC
     B500   A9 05      LDA #&05
     B502   A0 C4      LDY #&C4
.LB98F
     B504   CA         DEX
     B505   30 08      BMI &B50F
     B507   69 1A      ADC #&1A
     B509   90 F9      BCC &B504
     B50B   C8         INY
     B50C   18         CLC
     B50D   90 F5      BCC &B504
.LB99A
     B50F   84 B5      STY &B5
     B511   85 B4      STA &B4
.LB99E
     B513   20 8C 94   JSR &948C
     B516   8D B5 C2   STA &C2B5
     B519   F0 14      BEQ &B52F
     B51B   20 49 B4   JSR &B449
     B51E   A5 B4      LDA &B4
     B520   18         CLC
     B521   69 1A      ADC #&1A
     B523   85 B4      STA &B4
     B525   90 02      BCC &B529
     B527   E6 B5      INC &B5
.LB9B5
     B529   E6 B1      INC &B1
     B52B   C6 B0      DEC &B0
     B52D   D0 E4      BNE &B513
.LB9BB
     B52F   A0 05      LDY #&05
     B531   A5 B0      LDA &B0
     B533   91 C6      STA (&C6),Y
     B535   A0 09      LDY #&09
     B537   A5 B1      LDA &B1
     B539   91 C6      STA (&C6),Y
     B53B   4C A6 B4   JMP &B4A6
.dex_4
     B53E   CA         DEX
     B53F   CA         DEX
     B540   CA         DEX
     B541   CA         DEX
.RTS14
     B542   60         RTS
.LB9CA
     B543   AD B6 C2   LDA &C2B6
     B546   CD B7 C2   CMP &C2B7
     B549   F0 F7      BEQ &B542
.LB9D3
     B54B   24 CD      BIT &CD
     B54D   10 1F      BPL &B56E
     B54F   20 3F B6   JSR &B63F
     B552   90 06      BCC &B55A
     B554   AD BB C2   LDA &C2BB
     B557   1A         INC A
     B558   F0 14      BEQ &B56E
.LB9ED
     B55A   A9 40      LDA #&40
     B55C   04 CD      TSB &CD
     B55E   20 32 80   JSR &8032
     B561   20 18 9D   JSR &9D18
     B564   A9 00      LDA #&00
     B566   2A         ROL A
     B567   A2 B8      LDX #&B8
     B569   A0 C2      LDY #&C2
     B56B   20 06 04   JSR &0406
.LBA03
     B56E   AD B8 C2   LDA &C2B8
     B571   38         SEC
     B572   ED B6 C2   SBC &C2B6
     B575   85 B2      STA &B2
     B577   AD B9 C2   LDA &C2B9
     B57A   E9 00      SBC #&00
     B57C   85 B3      STA &B3
     B57E   20 18 9D   JSR &9D18
     B581   AC B6 C2   LDY &C2B6
     B584   08         PHP
.LBA1C
     B585   28         PLP
     B586   24 CD      BIT &CD
     B588   70 0E      BVS &B598
     B58A   90 06      BCC &B592
     B58C   B1 BE      LDA (&BE),Y
     B58E   91 B2      STA (&B2),Y
     B590   B0 17      BCS &B5A9
.LBA29
     B592   B1 B2      LDA (&B2),Y
     B594   91 BE      STA (&BE),Y
     B596   90 11      BCC &B5A9
.LBA2F
     B598   20 67 81   JSR &8167
     B59B   90 07      BCC &B5A4
     B59D   B1 BE      LDA (&BE),Y
     B59F   8D E5 FE   STA &FEE5
     B5A2   B0 05      BCS &B5A9
.LBA3B
     B5A4   AD E5 FE   LDA &FEE5
     B5A7   91 BE      STA (&BE),Y
.LBA40
     B5A9   C8         INY
     B5AA   08         PHP
     B5AB   CC B7 C2   CPY &C2B7
     B5AE   D0 D5      BNE &B585
     B5B0   28         PLP
     B5B1   4C 3A 80   JMP &803A
.lda_c314_y_sta_c22c_y_dey
     B5B4   B9 14 C3   LDA &C314,Y
.sta_c22c_y_dey
     B5B7   99 2C C2   STA &C22C,Y
     B5BA   88         DEY
     B5BB   60         RTS
.lda_40_sta_b8_lda_c2_sta_b9
     B5BC   A9 40      LDA #&40
.sta_b8_lda_c2_sta_b9
     B5BE   85 B8      STA &B8
     B5C0   A9 C2      LDA #&C2
     B5C2   85 B9      STA &B9
     B5C4   60         RTS
.lda_b6_y_ora_80_sta_b6_y
     B5C5   B1 B6      LDA (&B6),Y
     B5C7   09 80      ORA #&80
     B5C9   91 B6      STA (&B6),Y
     B5CB   60         RTS
.clc_lda_b6_adc_1a_sta_b6
     B5CC   18         CLC
.lda_b6_adc_1a_sta_b6
     B5CD   A5 B6      LDA &B6
     B5CF   69 1A      ADC #&1A
     B5D1   85 B6      STA &B6
     B5D3   60         RTS
.chunk_1
     B5D4   B5 00      LDA &00,X
     B5D6   8D 9A C2   STA &C29A
     B5D9   B5 01      LDA &01,X
     B5DB   8D 9B C2   STA &C29B
     B5DE   B5 02      LDA &02,X
     B5E0   8D 9C C2   STA &C29C
     B5E3   B5 03      LDA &03,X
     B5E5   8D 9D C2   STA &C29D
     B5E8   20 8C AA   JSR &AA8C
     B5EB   A6 C3      LDX &C3
     B5ED   A4 CF      LDY &CF
     B5EF   B5 00      LDA &00,X
     B5F1   60         RTS
.chunk_2
     B5F2   18         CLC
     B5F3   BD CA C3   LDA &C3CA,X
     B5F6   7D 70 C3   ADC &C370,X
     B5F9   8D 96 C2   STA &C296
     B5FC   BD C0 C3   LDA &C3C0,X
     B5FF   7D 66 C3   ADC &C366,X
     B602   8D 97 C2   STA &C297
     B605   BD B6 C3   LDA &C3B6,X
     B608   7D 5C C3   ADC &C35C,X
     B60B   8D 98 C2   STA &C298
     B60E   60         RTS
.chunk_3
     B60F   8D 1A C2   STA &C21A
     B612   AD 14 C3   LDA &C314
     B615   8D 1D C2   STA &C21D
     B618   AD 15 C3   LDA &C315
     B61B   8D 1C C2   STA &C21C
     B61E   AD 16 C3   LDA &C316
     B621   8D 1B C2   STA &C21B
     B624   60         RTS
.chunk_5
     B625   A0 00      LDY #&00
     B627   B1 B8      LDA (&B8),Y
     B629   85 B4      STA &B4
     B62B   C8         INY
     B62C   B1 B8      LDA (&B8),Y
     B62E   85 B5      STA &B5
     B630   60         RTS
.chunk_6
     B631   8D 98 C2   STA &C298
     B634   A9 02      LDA #&02
     B636   CD B4 C2   CMP &C2B4
     B639   A9 80      LDA #&80
     B63B   6A         ROR A
     B63C   4C 3A A8   JMP &A83A
.chunk_7
     B63F   AD BA C2   LDA &C2BA
     B642   AE BB C2   LDX &C2BB
     B645   20 53 80   JSR &8053
     B648   AD BA C2   LDA &C2BA
     B64B   C9 FE      CMP #&FE
     B64D   60         RTS
.chunk_8
     B64E   BD B6 C3   LDA &C3B6,X
     B651   29 E0      AND #&E0
     B653   CD 17 C3   CMP &C317
     B656   60         RTS
.chunk_9
     B657   A5 B4      LDA &B4
     B659   8D 40 C2   STA &C240
     B65C   A5 B5      LDA &B5
     B65E   8D 41 C2   STA &C241
     B661   4C BC B5   JMP &B5BC
.chunk_10
     B664   A9 FF      LDA #&FF
     B666   8D 2E C2   STA &C22E
     B669   8D 2F C2   STA &C22F
     B66C   60         RTS
.chunk_12
     B66D   AD 17 C3   LDA &C317
     B670   4C 8F B1   JMP &B18F
.chunk_13
     B673   0D 5C 0D   ORA &0D5C
     B676   8D 28 FE   STA &FE28
     B679   60         RTS
.chunk_14
     B67A   A0 06      LDY #&06
     B67C   B1 B0      LDA (&B0),Y
     B67E   0D 17 C3   ORA &C317
     B681   60         RTS
.chunk_15
     B682   E8         INX
     B683   C8         INY
     B684   C0 03      CPY #&03
     B686   60         RTS
.chunk_16
     B687   BD A1 86   LDA &86A1,X
     B68A   9D 15 C2   STA &C215,X
     B68D   CA         DEX
     B68E   60         RTS
.chunk_17
     B68F   B1 B6      LDA (&B6),Y
     B691   9D 1B C2   STA &C21B,X
     B694   99 FE C2   STA &C2FE,Y
     B697   C8         INY
     B698   CA         DEX
     B699   60         RTS
.chunk_40
     B69A   B1 B6      LDA (&B6),Y
     B69C   29 7F      AND #&7F
     B69E   60         RTS
.chunk_42
     B69F   A9 05      LDA #&05
     B6A1   85 B6      STA &B6
     B6A3   A9 C4      LDA #&C4
     B6A5   85 B7      STA &B7
     B6A7   60         RTS
.chunk_43
     B6A8   B1 B4      LDA (&B4),Y
     B6AA   C9 20      CMP #&20
     B6AC   60         RTS
.chunk_44
     B6AD   20 3A A8   JSR &A83A
     B6B0   A6 CF      LDX &CF
     B6B2   BC 7A C3   LDY &C37A,X
     B6B5   60         RTS
.chunk_45
     B6B6   BD A2 C3   LDA &C3A2,X
     B6B9   C9 01      CMP #&01
     B6BB   BD 98 C3   LDA &C398,X
     B6BE   60         RTS
.chunk_46
     B6BF   C8         INY
     B6C0   B9 D9 C8   LDA &C8D9,Y
     B6C3   29 7F      AND #&7F
     B6C5   C9 20      CMP #&20
     B6C7   60         RTS
.chunk_47
     B6C8   20 03 B4   JSR &B403
     B6CB   A9 01      LDA #&01
     B6CD   4C 32 B4   JMP &B432
.MMC_StartRead
     B6D0   20 39 BA   JSR &BA39
     B6D3   D0 0B      BNE &B6E0
     B6D5   4C 68 BA   JMP &BA68
.MMC_StartWrite
     B6D8   20 39 BA   JSR &BA39
     B6DB   D0 19      BNE &B6F6
     B6DD   4C E5 BA   JMP &BAE5
.errRead
     B6E0   09 40      ORA #&40
     B6E2   AA         TAX
     B6E3   20 04 82   JSR &8204
     B6E6   C7
     B6E7   4D 4D 43 ...
     B6F5   00
.errWrite
     B6F6   09 40      ORA #&40
     B6F8   AA         TAX
     B6F9   20 04 82   JSR &8204
     B6FC   C7
     B6FD   4D 4D 43 ...
     B70C   00
.MMC_SetupRW
     B70D   A9 58      LDA #&58
     B70F   B0 02      BCS &B713
     B711   A9 51      LDA #&51
.MMC_SetCommand
     B713   8D F1 C2   STA &C2F1
     B716   A9 00      LDA #&00
     B718   8D F2 C2   STA &C2F2
     B71B   8D F3 C2   STA &C2F3
     B71E   8D F4 C2   STA &C2F4
     B721   8D F5 C2   STA &C2F5
     B724   A9 FF      LDA #&FF
     B726   8D F0 C2   STA &C2F0
     B729   8D F6 C2   STA &C2F6
     B72C   8D F7 C2   STA &C2F7
     B72F   60         RTS
.MMC_INIT
     B730   A9 00      LDA #&00
     B732   8D EC C2   STA &C2EC
     B735   A9 32      LDA #&32
     B737   8D E9 C2   STA &C2E9
.iloop
     B73A   A0 0A      LDY #&0A
     B73C   20 30 BA   JSR &BA30
     B73F   A9 40      LDA #&40
     B741   20 13 B7   JSR &B713
     B744   A9 95      LDA #&95
     B746   8D F6 C2   STA &C2F6
     B749   20 39 BA   JSR &BA39
     B74C   29 81      AND #&81
     B74E   C9 01      CMP #&01
     B750   F0 03      BEQ &B755
     B752   4C F7 B7   JMP &B7F7
.il0
     B755   A9 01      LDA #&01
     B757   8D EB C2   STA &C2EB
     B75A   A9 48      LDA #&48
     B75C   20 13 B7   JSR &B713
     B75F   A9 01      LDA #&01
     B761   8D F4 C2   STA &C2F4
     B764   A9 AA      LDA #&AA
     B766   8D F5 C2   STA &C2F5
     B769   A9 87      LDA #&87
     B76B   8D F6 C2   STA &C2F6
     B76E   20 39 BA   JSR &BA39
     B771   C9 01      CMP #&01
     B773   F0 24      BEQ &B799
     B775   A9 02      LDA #&02
     B777   8D EB C2   STA &C2EB
.il1
     B77A   A9 41      LDA #&41
     B77C   20 13 B7   JSR &B713
     B77F   20 39 BA   JSR &BA39
     B782   C9 02      CMP #&02
     B784   90 03      BCC &B789
     B786   4C F7 B7   JMP &B7F7
.il11
     B789   24 FF      BIT &FF
     B78B   30 6A      BMI &B7F7
     B78D   C9 00      CMP #&00
     B78F   D0 E9      BNE &B77A
     B791   A9 02      LDA #&02
     B793   8D EB C2   STA &C2EB
     B796   4C E1 B7   JMP &B7E1
.isdhc
     B799   20 95 B9   JSR &B995
     B79C   20 95 B9   JSR &B995
     B79F   20 95 B9   JSR &B995
     B7A2   20 95 B9   JSR &B995
.isdhc2
     B7A5   A9 77      LDA #&77
     B7A7   20 13 B7   JSR &B713
     B7AA   20 39 BA   JSR &BA39
     B7AD   A9 69      LDA #&69
     B7AF   20 13 B7   JSR &B713
     B7B2   A9 40      LDA #&40
     B7B4   8D F2 C2   STA &C2F2
     B7B7   20 39 BA   JSR &BA39
     B7BA   C9 00      CMP #&00
     B7BC   D0 E7      BNE &B7A5
     B7BE   A9 7A      LDA #&7A
     B7C0   20 13 B7   JSR &B713
     B7C3   20 39 BA   JSR &BA39
     B7C6   C9 00      CMP #&00
     B7C8   D0 2D      BNE &B7F7
     B7CA   20 95 B9   JSR &B995
     B7CD   29 40      AND #&40
     B7CF   48         PHA
     B7D0   20 95 B9   JSR &B995
     B7D3   20 95 B9   JSR &B995
     B7D6   20 95 B9   JSR &B995
     B7D9   68         PLA
     B7DA   D0 05      BNE &B7E1
     B7DC   A9 02      LDA #&02
     B7DE   8D EB C2   STA &C2EB
.iok
     B7E1   A9 50      LDA #&50
     B7E3   20 13 B7   JSR &B713
     B7E6   A9 02      LDA #&02
     B7E8   8D F4 C2   STA &C2F4
     B7EB   20 39 BA   JSR &BA39
     B7EE   D0 11      BNE &B801
     B7F0   A9 40      LDA #&40
     B7F2   8D EC C2   STA &C2EC
     B7F5   18         CLC
     B7F6   60         RTS
.ifail
     B7F7   CE E9 C2   DEC &C2E9
     B7FA   F0 03      BEQ &B7FF
     B7FC   4C 3A B7   JMP &B73A
.ifaildone
     B7FF   38         SEC
     B800   60         RTS
.blkerr
     B801   20 02 82   JSR &8202
     B804   CD
     B805   4D 4D 43 ...
     B81C   00
.MMC_BEGIN
     B81D   48         PHA
     B81E   20 82 B9   JSR &B982
     B821   2C EC C2   BIT &C2EC
     B824   70 09      BVS &B82F
     B826   DA         PHX
     B827   5A         PHY
     B828   20 30 B7   JSR &B730
     B82B   7A         PLY
     B82C   FA         PLX
     B82D   B0 02      BCS &B831
.beg2
     B82F   68         PLA
     B830   60         RTS
.carderr
     B831   20 02 82   JSR &8202
     B834   CD
     B835   43 61 72 ...
     B83A   00
.setRandomAddress
     B83B   DA         PHX
     B83C   A9 00      LDA #&00
     B83E   48         PHA
     B83F   BD 03 C2   LDA &C203,X
     B842   48         PHA
     B843   BD 02 C2   LDA &C202,X
     B846   48         PHA
     B847   BD 01 C2   LDA &C201,X
     B84A   48         PHA
     B84B   80 0F      BRA &B85C
.setCommandAddress
     B84D   DA         PHX
     B84E   A9 00      LDA #&00
     B850   48         PHA
     B851   A0 06      LDY #&06
     B853   A2 03      LDX #&03
.loop
     B855   B1 B0      LDA (&B0),Y
     B857   48         PHA
     B858   C8         INY
     B859   CA         DEX
     B85A   D0 F9      BNE &B855
.setAddressFromStack
     B85C   BA         TSX
     B85D   BD 03 01   LDA &0103,X
     B860   48         PHA
     B861   0D 17 C3   ORA &C317
     B864   8D 33 C3   STA &C333
     B867   18         CLC
     B868   2A         ROL A
     B869   2A         ROL A
     B86A   2A         ROL A
     B86B   2A         ROL A
     B86C   29 07      AND #&07
     B86E   CD ED C2   CMP &C2ED
     B871   B0 36      BCS &B8A9
     B873   0A         ASL A
     B874   0A         ASL A
     B875   A8         TAY
     B876   68         PLA
     B877   29 1F      AND #&1F
     B879   9D 03 01   STA &0103,X
     B87C   18         CLC
.addDriveOffset
     B87D   BD 01 01   LDA &0101,X
     B880   79 F8 C2   ADC &C2F8,Y
     B883   9D 01 01   STA &0101,X
     B886   E8         INX
     B887   C8         INY
     B888   98         TYA
     B889   29 03      AND #&03
     B88B   D0 F0      BNE &B87D
     B88D   A2 03      LDX #&03
     B88F   AD EB C2   LDA &C2EB
     B892   C9 02      CMP #&02
     B894   D0 3E      BNE &B8D4
     B896   18         CLC
.loop
     B897   68         PLA
     B898   2A         ROL A
     B899   9D F1 C2   STA &C2F1,X
     B89C   CA         DEX
     B89D   D0 F8      BNE &B897
     B89F   9C F5 C2   STZ &C2F5
     B8A2   B0 1B      BCS &B8BF
     B8A4   68         PLA
     B8A5   D0 18      BNE &B8BF
     B8A7   FA         PLX
     B8A8   60         RTS
.invalidDrive
     B8A9   20 02 82   JSR &8202
     B8AC   D2
     B8AD   44 72 69 ...
     B8BE   00
.overflow
     B8BF   20 02 82   JSR &8202
     B8C2   C7
     B8C3   53 65 63 ...
     B8D3   00
.setCommandAddressSDHC
.loop
     B8D4   68         PLA
     B8D5   9D F2 C2   STA &C2F2,X
     B8D8   CA         DEX
     B8D9   10 F9      BPL &B8D4
     B8DB   FA         PLX
     B8DC   60         RTS
.incCommandAddress
     B8DD   AD EB C2   LDA &C2EB
     B8E0   C9 02      CMP #&02
     B8E2   D0 11      BNE &B8F5
     B8E4   EE F4 C2   INC &C2F4
.incMS
     B8E7   EE F4 C2   INC &C2F4
     B8EA   D0 08      BNE &B8F4
     B8EC   EE F3 C2   INC &C2F3
     B8EF   D0 03      BNE &B8F4
     B8F1   EE F2 C2   INC &C2F2
.incDone
     B8F4   60         RTS
.incCommandAddressSDHC
     B8F5   EE F5 C2   INC &C2F5
     B8F8   F0 ED      BEQ &B8E7
     B8FA   60         RTS
.initializeDriveTable
     B8FB   20 1D B8   JSR &B81D
     B8FE   18         CLC
     B8FF   20 0D B7   JSR &B70D
     B902   20 D0 B6   JSR &B6D0
     B905   A9 00      LDA #&00
     B907   85 B2      STA &B2
     B909   A9 C0      LDA #&C0
     B90B   85 B3      STA &B3
     B90D   20 31 BB   JSR &BB31
     B910   20 2E BA   JSR &BA2E
     B913   AD FE C1   LDA &C1FE
     B916   C9 55      CMP #&55
     B918   D0 46      BNE &B960
     B91A   AD FF C1   LDA &C1FF
     B91D   C9 AA      CMP #&AA
     B91F   D0 3F      BNE &B960
     B921   A9 BE      LDA #&BE
     B923   85 B2      STA &B2
     B925   A9 C1      LDA #&C1
     B927   85 B3      STA &B3
     B929   A2 08      LDX #&08
.loop
     B92B   9E F7 C2   STZ &C2F7,X
     B92E   CA         DEX
     B92F   D0 FA      BNE &B92B
     B931   9C ED C2   STZ &C2ED
.testPartition
     B934   A0 04      LDY #&04
     B936   B1 B2      LDA (&B2),Y
     B938   C9 AD      CMP #&AD
     B93A   D0 14      BNE &B950
     B93C   EE ED C2   INC &C2ED
     B93F   A0 08      LDY #&08
.copyLBA
     B941   B1 B2      LDA (&B2),Y
     B943   9D F8 C2   STA &C2F8,X
     B946   E8         INX
     B947   C8         INY
     B948   C0 0C      CPY #&0C
     B94A   D0 F5      BNE &B941
     B94C   E0 08      CPX #&08
     B94E   F0 0B      BEQ &B95B
.nextPartition
     B950   18         CLC
     B951   A5 B2      LDA &B2
     B953   69 10      ADC #&10
     B955   85 B2      STA &B2
     B957   C9 FE      CMP #&FE
     B959   D0 D9      BNE &B934
.done
     B95B   E0 00      CPX #&00
     B95D   F0 0C      BEQ &B96B
     B95F   60         RTS
.noMBR
     B960   20 02 82   JSR &8202
     B963   CD
     B964   4E 6F 20 ...
     B96A   00
.noADFS
     B96B   20 02 82   JSR &8202
     B96E   CD
     B96F   4E 6F 20 ...
     B981   00
.MMC_DEVICE_RESET
     B982   A9 03      LDA #&03
     B984   8D 60 FE   STA &FE60
     B987   A9 03      LDA #&03
     B989   8D 62 FE   STA &FE62
     B98C   20 BE BA   JSR &BABE
     B98F   A9 1C      LDA #&1C
     B991   8D 6E FE   STA &FE6E
     B994   60         RTS
.MMC_GetByte
.UP_ReadByteX
     B995   20 CF BA   JSR &BACF
     B998   A9 04      LDA #&04
.wait
     B99A   2C 6D FE   BIT &FE6D
     B99D   F0 FB      BEQ &B99A
     B99F   20 BE BA   JSR &BABE
     B9A2   AD 6A FE   LDA &FE6A
     B9A5   60         RTS
.UP_ReadBits7
     B9A6   8E 60 FE   STX &FE60
     B9A9   8D 60 FE   STA &FE60
     B9AC   8E 60 FE   STX &FE60
     B9AF   8D 60 FE   STA &FE60
     B9B2   8E 60 FE   STX &FE60
     B9B5   8D 60 FE   STA &FE60
.UP_ReadBits4
     B9B8   8E 60 FE   STX &FE60
     B9BB   8D 60 FE   STA &FE60
     B9BE   8E 60 FE   STX &FE60
     B9C1   8D 60 FE   STA &FE60
     B9C4   8E 60 FE   STX &FE60
     B9C7   8D 60 FE   STA &FE60
     B9CA   8E 60 FE   STX &FE60
     B9CD   8D 60 FE   STA &FE60
     B9D0   AD 6A FE   LDA &FE6A
     B9D3   60         RTS
.UP_WriteByte
     B9D4   0A         ASL A
     B9D5   2A         ROL A
     B9D6   29 FD      AND #&FD
     B9D8   8D 60 FE   STA &FE60
     B9DB   09 02      ORA #&02
     B9DD   8D 60 FE   STA &FE60
     B9E0   2A         ROL A
     B9E1   29 FD      AND #&FD
     B9E3   8D 60 FE   STA &FE60
     B9E6   09 02      ORA #&02
     B9E8   8D 60 FE   STA &FE60
     B9EB   2A         ROL A
     B9EC   29 FD      AND #&FD
     B9EE   8D 60 FE   STA &FE60
     B9F1   09 02      ORA #&02
     B9F3   8D 60 FE   STA &FE60
     B9F6   2A         ROL A
     B9F7   29 FD      AND #&FD
     B9F9   8D 60 FE   STA &FE60
     B9FC   09 02      ORA #&02
     B9FE   8D 60 FE   STA &FE60
     BA01   2A         ROL A
     BA02   29 FD      AND #&FD
     BA04   8D 60 FE   STA &FE60
     BA07   09 02      ORA #&02
     BA09   8D 60 FE   STA &FE60
     BA0C   2A         ROL A
     BA0D   29 FD      AND #&FD
     BA0F   8D 60 FE   STA &FE60
     BA12   09 02      ORA #&02
     BA14   8D 60 FE   STA &FE60
     BA17   2A         ROL A
     BA18   29 FD      AND #&FD
     BA1A   8D 60 FE   STA &FE60
     BA1D   09 02      ORA #&02
     BA1F   8D 60 FE   STA &FE60
     BA22   2A         ROL A
     BA23   29 FD      AND #&FD
     BA25   8D 60 FE   STA &FE60
     BA28   09 02      ORA #&02
     BA2A   8D 60 FE   STA &FE60
     BA2D   60         RTS
.MMC_16Clocks
     BA2E   A0 02      LDY #&02
.MMC_Clocks
     BA30   A2 01      LDX #&01
.clku1
     BA32   20 95 B9   JSR &B995
     BA35   88         DEY
     BA36   D0 FA      BNE &BA32
     BA38   60         RTS
.MMC_DoCommand
     BA39   A2 00      LDX #&00
     BA3B   A0 07      LDY #&07
.dcmdu1
     BA3D   BD F0 C2   LDA &C2F0,X
     BA40   20 D4 B9   JSR &B9D4
     BA43   E8         INX
     BA44   88         DEY
     BA45   D0 F6      BNE &BA3D
     BA47   20 4D BA   JSR &BA4D
     BA4A   4C A6 B9   JMP &B9A6
.waitresp_up
     BA4D   A0 00      LDY #&00
.wrup
     BA4F   88         DEY
     BA50   F0 11      BEQ &BA63
     BA52   A2 01      LDX #&01
     BA54   A9 03      LDA #&03
     BA56   8E 60 FE   STX &FE60
     BA59   8D 60 FE   STA &FE60
     BA5C   AD 6A FE   LDA &FE6A
     BA5F   29 01      AND #&01
     BA61   D0 EC      BNE &BA4F
.wrup_timeout
     BA63   A2 01      LDX #&01
     BA65   A9 03      LDA #&03
     BA67   60         RTS
.MMC_WaitForData
     BA68   A2 01      LDX #&01
.wlu1
     BA6A   20 95 B9   JSR &B995
     BA6D   C9 FE      CMP #&FE
     BA6F   D0 F9      BNE &BA6A
     BA71   60         RTS
.MMC_Read256
     BA72   A2 00      LDX #&00
.MMC_ReadX
     BA74   20 CF BA   JSR &BACF
     BA77   A0 00      LDY #&00
     BA79   24 CD      BIT &CD
     BA7B   70 0D      BVS &BA8A
.MMC_ReadToMemory
     BA7D   20 B3 BA   JSR &BAB3
     BA80   91 B2      STA (&B2),Y
     BA82   20 98 BA   JSR &BA98
     BA85   C8         INY
     BA86   CA         DEX
     BA87   D0 F4      BNE &BA7D
     BA89   60         RTS
.MMC_ReadToTube
     BA8A   20 B3 BA   JSR &BAB3
     BA8D   8D E5 FE   STA &FEE5
     BA90   20 98 BA   JSR &BA98
     BA93   C8         INY
     BA94   CA         DEX
     BA95   D0 F3      BNE &BA8A
     BA97   60         RTS
.WaitForShiftDone
     BA98   A9 04      LDA #&04
     BA9A   E0 01      CPX #&01
     BA9C   F0 09      BEQ &BAA7
.notLastByte
     BA9E   2C 6D FE   BIT &FE6D
     BAA1   F0 FB      BEQ &BA9E
     BAA3   AD 6A FE   LDA &FE6A
     BAA6   60         RTS
.lastByte
     BAA7   2C 6D FE   BIT &FE6D
     BAAA   F0 FB      BEQ &BAA7
     BAAC   20 BE BA   JSR &BABE
     BAAF   AD 6A FE   LDA &FE6A
     BAB2   60         RTS
.WaitForShiftDoneNotLast
     BAB3   A9 04      LDA #&04
.notLastByte
     BAB5   2C 6D FE   BIT &FE6D
     BAB8   F0 FB      BEQ &BAB5
     BABA   AD 6A FE   LDA &FE6A
     BABD   60         RTS
.ShiftRegMode0
     BABE   AD 6B FE   LDA &FE6B
     BAC1   29 E3      AND #&E3
     BAC3   8D 6B FE   STA &FE6B
     BAC6   AD 62 FE   LDA &FE62
     BAC9   09 02      ORA #&02
     BACB   8D 62 FE   STA &FE62
     BACE   60         RTS
.ShiftRegMode2
     BACF   AD 62 FE   LDA &FE62
     BAD2   29 FD      AND #&FD
     BAD4   8D 62 FE   STA &FE62
     BAD7   AD 6B FE   LDA &FE6B
     BADA   29 E3      AND #&E3
     BADC   09 08      ORA #&08
     BADE   8D 6B FE   STA &FE6B
     BAE1   AD 6A FE   LDA &FE6A
     BAE4   60         RTS
.MMC_SendingData
     BAE5   A0 02      LDY #&02
     BAE7   20 30 BA   JSR &BA30
     BAEA   A9 FE      LDA #&FE
     BAEC   4C D4 B9   JMP &B9D4
.MMC_EndWrite
     BAEF   A0 02      LDY #&02
     BAF1   20 30 BA   JSR &BA30
     BAF4   20 4D BA   JSR &BA4D
     BAF7   20 B8 B9   JSR &B9B8
     BAFA   A8         TAY
     BAFB   29 1F      AND #&1F
     BAFD   C9 05      CMP #&05
     BAFF   D0 0A      BNE &BB0B
     BB01   A2 01      LDX #&01
.ewu2
     BB03   20 95 B9   JSR &B995
     BB06   C9 FF      CMP #&FF
     BB08   D0 F9      BNE &BB03
     BB0A   60         RTS
.error
     BB0B   4C F6 B6   JMP &B6F6
.MMC_Write256
     BB0E   A0 00      LDY #&00
     BB10   24 CD      BIT &CD
     BB12   70 0E      BVS &BB22
.MMC_WriteFromMemory
     BB14   B1 B2      LDA (&B2),Y
     BB16   20 D4 B9   JSR &B9D4
     BB19   A9 00      LDA #&00
     BB1B   20 D4 B9   JSR &B9D4
     BB1E   C8         INY
     BB1F   D0 F3      BNE &BB14
     BB21   60         RTS
.MMC_WriteFromTube
     BB22   AD E5 FE   LDA &FEE5
     BB25   20 D4 B9   JSR &B9D4
     BB28   A9 00      LDA #&00
     BB2A   20 D4 B9   JSR &B9D4
     BB2D   C8         INY
     BB2E   D0 F2      BNE &BB22
     BB30   60         RTS
.MMC_Read512
     BB31   20 CF BA   JSR &BACF
     BB34   A2 00      LDX #&00
     BB36   A0 00      LDY #&00
.loop1
     BB38   20 B3 BA   JSR &BAB3
     BB3B   91 B2      STA (&B2),Y
     BB3D   C8         INY
     BB3E   CA         DEX
     BB3F   D0 F7      BNE &BB38
     BB41   E6 B3      INC &B3
.loop2
     BB43   20 98 BA   JSR &BA98
     BB46   91 B2      STA (&B2),Y
     BB48   C8         INY
     BB49   CA         DEX
     BB4A   D0 F7      BNE &BB43
     BB4C   60         RTS
    code ends at &BB4D  ( 1203 bytes free ) 
Saving file 'ADFSMMC'
